
Smart_Home_Master.elf:     file format elf32-avr

Sections:
Idx Name          Size      VMA       LMA       File off  Algn
  0 .text         0000315c  00000000  00000000  00000094  2**1
                  CONTENTS, ALLOC, LOAD, READONLY, CODE
  1 .data         00000580  00800060  0000315c  000031f0  2**0
                  CONTENTS, ALLOC, LOAD, DATA
  2 .bss          00000058  008005e0  008005e0  00003770  2**0
                  ALLOC

Disassembly of section .text:

00000000 <__vectors>:
       0:	0c 94 2a 00 	jmp	0x54	; 0x54 <__ctors_end>
       4:	0c 94 f1 05 	jmp	0xbe2	; 0xbe2 <__vector_1>
       8:	0c 94 1d 06 	jmp	0xc3a	; 0xc3a <__vector_2>
       c:	0c 94 49 06 	jmp	0xc92	; 0xc92 <__vector_3>
      10:	0c 94 88 03 	jmp	0x710	; 0x710 <__vector_4>
      14:	0c 94 5f 03 	jmp	0x6be	; 0x6be <__vector_5>
      18:	0c 94 36 03 	jmp	0x66c	; 0x66c <__vector_6>
      1c:	0c 94 0d 03 	jmp	0x61a	; 0x61a <__vector_7>
      20:	0c 94 e4 02 	jmp	0x5c8	; 0x5c8 <__vector_8>
      24:	0c 94 bb 02 	jmp	0x576	; 0x576 <__vector_9>
      28:	0c 94 92 02 	jmp	0x524	; 0x524 <__vector_10>
      2c:	0c 94 69 02 	jmp	0x4d2	; 0x4d2 <__vector_11>
      30:	0c 94 af 04 	jmp	0x95e	; 0x95e <__vector_12>
      34:	0c 94 2e 01 	jmp	0x25c	; 0x25c <__vector_13>
      38:	0c 94 47 00 	jmp	0x8e	; 0x8e <__bad_interrupt>
      3c:	0c 94 6d 01 	jmp	0x2da	; 0x2da <__vector_15>
      40:	0c 94 47 00 	jmp	0x8e	; 0x8e <__bad_interrupt>
      44:	0c 94 47 00 	jmp	0x8e	; 0x8e <__bad_interrupt>
      48:	0c 94 47 00 	jmp	0x8e	; 0x8e <__bad_interrupt>
      4c:	0c 94 47 00 	jmp	0x8e	; 0x8e <__bad_interrupt>
      50:	0c 94 47 00 	jmp	0x8e	; 0x8e <__bad_interrupt>

00000054 <__ctors_end>:
      54:	11 24       	eor	r1, r1
      56:	1f be       	out	0x3f, r1	; 63
      58:	cf e5       	ldi	r28, 0x5F	; 95
      5a:	d8 e0       	ldi	r29, 0x08	; 8
      5c:	de bf       	out	0x3e, r29	; 62
      5e:	cd bf       	out	0x3d, r28	; 61

00000060 <__do_copy_data>:
      60:	15 e0       	ldi	r17, 0x05	; 5
      62:	a0 e6       	ldi	r26, 0x60	; 96
      64:	b0 e0       	ldi	r27, 0x00	; 0
      66:	ec e5       	ldi	r30, 0x5C	; 92
      68:	f1 e3       	ldi	r31, 0x31	; 49
      6a:	02 c0       	rjmp	.+4      	; 0x70 <.do_copy_data_start>

0000006c <.do_copy_data_loop>:
      6c:	05 90       	lpm	r0, Z+
      6e:	0d 92       	st	X+, r0

00000070 <.do_copy_data_start>:
      70:	a0 3e       	cpi	r26, 0xE0	; 224
      72:	b1 07       	cpc	r27, r17
      74:	d9 f7       	brne	.-10     	; 0x6c <.do_copy_data_loop>

00000076 <__do_clear_bss>:
      76:	16 e0       	ldi	r17, 0x06	; 6
      78:	a0 ee       	ldi	r26, 0xE0	; 224
      7a:	b5 e0       	ldi	r27, 0x05	; 5
      7c:	01 c0       	rjmp	.+2      	; 0x80 <.do_clear_bss_start>

0000007e <.do_clear_bss_loop>:
      7e:	1d 92       	st	X+, r1

00000080 <.do_clear_bss_start>:
      80:	a8 33       	cpi	r26, 0x38	; 56
      82:	b1 07       	cpc	r27, r17
      84:	e1 f7       	brne	.-8      	; 0x7e <.do_clear_bss_loop>
      86:	0e 94 e2 16 	call	0x2dc4	; 0x2dc4 <main>
      8a:	0c 94 ac 18 	jmp	0x3158	; 0x3158 <_exit>

0000008e <__bad_interrupt>:
      8e:	0c 94 00 00 	jmp	0	; 0x0 <__vectors>

00000092 <USART_vInit>:
      92:	59 98       	cbi	0x0b, 1	; 11
      94:	10 bc       	out	0x20, r1	; 32
      96:	83 e3       	ldi	r24, 0x33	; 51
      98:	89 b9       	out	0x09, r24	; 9
      9a:	58 98       	cbi	0x0b, 0	; 11
      9c:	52 98       	cbi	0x0a, 2	; 10
      9e:	86 e8       	ldi	r24, 0x86	; 134
      a0:	80 bd       	out	0x20, r24	; 32
      a2:	57 98       	cbi	0x0a, 7	; 10
      a4:	56 98       	cbi	0x0a, 6	; 10
      a6:	55 98       	cbi	0x0a, 5	; 10
      a8:	54 9a       	sbi	0x0a, 4	; 10
      aa:	53 9a       	sbi	0x0a, 3	; 10
      ac:	08 95       	ret

000000ae <USART_u8SendData>:
      ae:	28 2f       	mov	r18, r24
      b0:	80 91 e2 05 	lds	r24, 0x05E2
      b4:	88 23       	and	r24, r24
      b6:	11 f0       	breq	.+4      	; 0xbc <USART_u8SendData+0xe>
      b8:	83 e0       	ldi	r24, 0x03	; 3
      ba:	08 95       	ret
      bc:	80 e0       	ldi	r24, 0x00	; 0
      be:	90 e0       	ldi	r25, 0x00	; 0
      c0:	a0 e0       	ldi	r26, 0x00	; 0
      c2:	b0 e0       	ldi	r27, 0x00	; 0
      c4:	03 c0       	rjmp	.+6      	; 0xcc <USART_u8SendData+0x1e>
      c6:	01 96       	adiw	r24, 0x01	; 1
      c8:	a1 1d       	adc	r26, r1
      ca:	b1 1d       	adc	r27, r1
      cc:	5d 99       	sbic	0x0b, 5	; 11
      ce:	09 c0       	rjmp	.+18     	; 0xe2 <USART_u8SendData+0x34>
      d0:	80 31       	cpi	r24, 0x10	; 16
      d2:	37 e2       	ldi	r19, 0x27	; 39
      d4:	93 07       	cpc	r25, r19
      d6:	30 e0       	ldi	r19, 0x00	; 0
      d8:	a3 07       	cpc	r26, r19
      da:	30 e0       	ldi	r19, 0x00	; 0
      dc:	b3 07       	cpc	r27, r19
      de:	99 f7       	brne	.-26     	; 0xc6 <USART_u8SendData+0x18>
      e0:	08 c0       	rjmp	.+16     	; 0xf2 <USART_u8SendData+0x44>
      e2:	80 51       	subi	r24, 0x10	; 16
      e4:	97 42       	sbci	r25, 0x27	; 39
      e6:	a0 40       	sbci	r26, 0x00	; 0
      e8:	b0 40       	sbci	r27, 0x00	; 0
      ea:	19 f0       	breq	.+6      	; 0xf2 <USART_u8SendData+0x44>
      ec:	2c b9       	out	0x0c, r18	; 12
      ee:	80 e0       	ldi	r24, 0x00	; 0
      f0:	01 c0       	rjmp	.+2      	; 0xf4 <USART_u8SendData+0x46>
      f2:	84 e0       	ldi	r24, 0x04	; 4
      f4:	10 92 e2 05 	sts	0x05E2, r1
      f8:	08 95       	ret

000000fa <USART_u8ReceiveData>:
      fa:	fc 01       	movw	r30, r24
      fc:	00 97       	sbiw	r24, 0x00	; 0
      fe:	11 f4       	brne	.+4      	; 0x104 <USART_u8ReceiveData+0xa>
     100:	82 e0       	ldi	r24, 0x02	; 2
     102:	08 95       	ret
     104:	80 91 e2 05 	lds	r24, 0x05E2
     108:	88 23       	and	r24, r24
     10a:	11 f0       	breq	.+4      	; 0x110 <USART_u8ReceiveData+0x16>
     10c:	83 e0       	ldi	r24, 0x03	; 3
     10e:	08 95       	ret
     110:	80 e0       	ldi	r24, 0x00	; 0
     112:	90 e0       	ldi	r25, 0x00	; 0
     114:	a0 e0       	ldi	r26, 0x00	; 0
     116:	b0 e0       	ldi	r27, 0x00	; 0
     118:	03 c0       	rjmp	.+6      	; 0x120 <USART_u8ReceiveData+0x26>
     11a:	01 96       	adiw	r24, 0x01	; 1
     11c:	a1 1d       	adc	r26, r1
     11e:	b1 1d       	adc	r27, r1
     120:	5f 99       	sbic	0x0b, 7	; 11
     122:	09 c0       	rjmp	.+18     	; 0x136 <USART_u8ReceiveData+0x3c>
     124:	80 31       	cpi	r24, 0x10	; 16
     126:	27 e2       	ldi	r18, 0x27	; 39
     128:	92 07       	cpc	r25, r18
     12a:	20 e0       	ldi	r18, 0x00	; 0
     12c:	a2 07       	cpc	r26, r18
     12e:	20 e0       	ldi	r18, 0x00	; 0
     130:	b2 07       	cpc	r27, r18
     132:	99 f7       	brne	.-26     	; 0x11a <USART_u8ReceiveData+0x20>
     134:	09 c0       	rjmp	.+18     	; 0x148 <USART_u8ReceiveData+0x4e>
     136:	80 51       	subi	r24, 0x10	; 16
     138:	97 42       	sbci	r25, 0x27	; 39
     13a:	a0 40       	sbci	r26, 0x00	; 0
     13c:	b0 40       	sbci	r27, 0x00	; 0
     13e:	21 f0       	breq	.+8      	; 0x148 <USART_u8ReceiveData+0x4e>
     140:	8c b1       	in	r24, 0x0c	; 12
     142:	80 83       	st	Z, r24
     144:	80 e0       	ldi	r24, 0x00	; 0
     146:	01 c0       	rjmp	.+2      	; 0x14a <USART_u8ReceiveData+0x50>
     148:	84 e0       	ldi	r24, 0x04	; 4
     14a:	10 92 e2 05 	sts	0x05E2, r1
     14e:	08 95       	ret

00000150 <USART_u8SendStringSynch>:
     150:	cf 93       	push	r28
     152:	df 93       	push	r29
     154:	00 97       	sbiw	r24, 0x00	; 0
     156:	11 f4       	brne	.+4      	; 0x15c <USART_u8SendStringSynch+0xc>
     158:	82 e0       	ldi	r24, 0x02	; 2
     15a:	0a c0       	rjmp	.+20     	; 0x170 <USART_u8SendStringSynch+0x20>
     15c:	ec 01       	movw	r28, r24
     15e:	05 c0       	rjmp	.+10     	; 0x16a <USART_u8SendStringSynch+0x1a>
     160:	0e 94 57 00 	call	0xae	; 0xae <USART_u8SendData>
     164:	21 96       	adiw	r28, 0x01	; 1
     166:	88 23       	and	r24, r24
     168:	19 f4       	brne	.+6      	; 0x170 <USART_u8SendStringSynch+0x20>
     16a:	88 81       	ld	r24, Y
     16c:	88 23       	and	r24, r24
     16e:	c1 f7       	brne	.-16     	; 0x160 <USART_u8SendStringSynch+0x10>
     170:	df 91       	pop	r29
     172:	cf 91       	pop	r28
     174:	08 95       	ret

00000176 <USART_u8SendStringAsynch>:
     176:	fc 01       	movw	r30, r24
     178:	80 91 e2 05 	lds	r24, 0x05E2
     17c:	88 23       	and	r24, r24
     17e:	11 f0       	breq	.+4      	; 0x184 <USART_u8SendStringAsynch+0xe>
     180:	83 e0       	ldi	r24, 0x03	; 3
     182:	08 95       	ret
     184:	30 97       	sbiw	r30, 0x00	; 0
     186:	a9 f0       	breq	.+42     	; 0x1b2 <USART_u8SendStringAsynch+0x3c>
     188:	61 15       	cp	r22, r1
     18a:	71 05       	cpc	r23, r1
     18c:	91 f0       	breq	.+36     	; 0x1b2 <USART_u8SendStringAsynch+0x3c>
     18e:	81 e0       	ldi	r24, 0x01	; 1
     190:	80 93 e2 05 	sts	0x05E2, r24
     194:	f0 93 e1 05 	sts	0x05E1, r31
     198:	e0 93 e0 05 	sts	0x05E0, r30
     19c:	70 93 e4 05 	sts	0x05E4, r23
     1a0:	60 93 e3 05 	sts	0x05E3, r22
     1a4:	10 92 e8 05 	sts	0x05E8, r1
     1a8:	80 81       	ld	r24, Z
     1aa:	8c b9       	out	0x0c, r24	; 12
     1ac:	56 9a       	sbi	0x0a, 6	; 10
     1ae:	80 e0       	ldi	r24, 0x00	; 0
     1b0:	08 95       	ret
     1b2:	82 e0       	ldi	r24, 0x02	; 2
     1b4:	08 95       	ret

000001b6 <USART_u8ReceiveBufferSynch>:
     1b6:	af 92       	push	r10
     1b8:	bf 92       	push	r11
     1ba:	cf 92       	push	r12
     1bc:	df 92       	push	r13
     1be:	ef 92       	push	r14
     1c0:	ff 92       	push	r15
     1c2:	0f 93       	push	r16
     1c4:	1f 93       	push	r17
     1c6:	cf 93       	push	r28
     1c8:	df 93       	push	r29
     1ca:	ec 01       	movw	r28, r24
     1cc:	5a 01       	movw	r10, r20
     1ce:	6b 01       	movw	r12, r22
     1d0:	00 97       	sbiw	r24, 0x00	; 0
     1d2:	11 f4       	brne	.+4      	; 0x1d8 <USART_u8ReceiveBufferSynch+0x22>
     1d4:	82 e0       	ldi	r24, 0x02	; 2
     1d6:	16 c0       	rjmp	.+44     	; 0x204 <USART_u8ReceiveBufferSynch+0x4e>
     1d8:	ee 24       	eor	r14, r14
     1da:	ff 24       	eor	r15, r15
     1dc:	87 01       	movw	r16, r14
     1de:	0c c0       	rjmp	.+24     	; 0x1f8 <USART_u8ReceiveBufferSynch+0x42>
     1e0:	ce 01       	movw	r24, r28
     1e2:	8e 0d       	add	r24, r14
     1e4:	9f 1d       	adc	r25, r15
     1e6:	0e 94 7d 00 	call	0xfa	; 0xfa <USART_u8ReceiveData>
     1ea:	88 23       	and	r24, r24
     1ec:	59 f4       	brne	.+22     	; 0x204 <USART_u8ReceiveBufferSynch+0x4e>
     1ee:	08 94       	sec
     1f0:	e1 1c       	adc	r14, r1
     1f2:	f1 1c       	adc	r15, r1
     1f4:	01 1d       	adc	r16, r1
     1f6:	11 1d       	adc	r17, r1
     1f8:	ea 14       	cp	r14, r10
     1fa:	fb 04       	cpc	r15, r11
     1fc:	0c 05       	cpc	r16, r12
     1fe:	1d 05       	cpc	r17, r13
     200:	78 f3       	brcs	.-34     	; 0x1e0 <USART_u8ReceiveBufferSynch+0x2a>
     202:	80 e0       	ldi	r24, 0x00	; 0
     204:	df 91       	pop	r29
     206:	cf 91       	pop	r28
     208:	1f 91       	pop	r17
     20a:	0f 91       	pop	r16
     20c:	ff 90       	pop	r15
     20e:	ef 90       	pop	r14
     210:	df 90       	pop	r13
     212:	cf 90       	pop	r12
     214:	bf 90       	pop	r11
     216:	af 90       	pop	r10
     218:	08 95       	ret

0000021a <USART_u8ReceiveBufferAsynch>:
     21a:	bc 01       	movw	r22, r24
     21c:	80 91 e2 05 	lds	r24, 0x05E2
     220:	88 23       	and	r24, r24
     222:	11 f0       	breq	.+4      	; 0x228 <USART_u8ReceiveBufferAsynch+0xe>
     224:	83 e0       	ldi	r24, 0x03	; 3
     226:	08 95       	ret
     228:	61 15       	cp	r22, r1
     22a:	71 05       	cpc	r23, r1
     22c:	a9 f0       	breq	.+42     	; 0x258 <USART_u8ReceiveBufferAsynch+0x3e>
     22e:	21 15       	cp	r18, r1
     230:	31 05       	cpc	r19, r1
     232:	91 f0       	breq	.+36     	; 0x258 <USART_u8ReceiveBufferAsynch+0x3e>
     234:	81 e0       	ldi	r24, 0x01	; 1
     236:	80 93 e2 05 	sts	0x05E2, r24
     23a:	70 93 e6 05 	sts	0x05E6, r23
     23e:	60 93 e5 05 	sts	0x05E5, r22
     242:	30 93 e4 05 	sts	0x05E4, r19
     246:	20 93 e3 05 	sts	0x05E3, r18
     24a:	40 93 e7 05 	sts	0x05E7, r20
     24e:	10 92 e8 05 	sts	0x05E8, r1
     252:	57 9a       	sbi	0x0a, 7	; 10
     254:	80 e0       	ldi	r24, 0x00	; 0
     256:	08 95       	ret
     258:	82 e0       	ldi	r24, 0x02	; 2
     25a:	08 95       	ret

0000025c <__vector_13>:
     25c:	1f 92       	push	r1
     25e:	0f 92       	push	r0
     260:	0f b6       	in	r0, 0x3f	; 63
     262:	0f 92       	push	r0
     264:	11 24       	eor	r1, r1
     266:	2f 93       	push	r18
     268:	3f 93       	push	r19
     26a:	4f 93       	push	r20
     26c:	5f 93       	push	r21
     26e:	6f 93       	push	r22
     270:	7f 93       	push	r23
     272:	8f 93       	push	r24
     274:	9f 93       	push	r25
     276:	af 93       	push	r26
     278:	bf 93       	push	r27
     27a:	ef 93       	push	r30
     27c:	ff 93       	push	r31
     27e:	90 91 e8 05 	lds	r25, 0x05E8
     282:	8c b1       	in	r24, 0x0c	; 12
     284:	e0 91 e5 05 	lds	r30, 0x05E5
     288:	f0 91 e6 05 	lds	r31, 0x05E6
     28c:	e9 0f       	add	r30, r25
     28e:	f1 1d       	adc	r31, r1
     290:	80 83       	st	Z, r24
     292:	9f 5f       	subi	r25, 0xFF	; 255
     294:	90 93 e8 05 	sts	0x05E8, r25
     298:	80 91 e7 05 	lds	r24, 0x05E7
     29c:	98 17       	cp	r25, r24
     29e:	61 f4       	brne	.+24     	; 0x2b8 <__vector_13+0x5c>
     2a0:	10 92 e8 05 	sts	0x05E8, r1
     2a4:	10 92 e2 05 	sts	0x05E2, r1
     2a8:	e0 91 e3 05 	lds	r30, 0x05E3
     2ac:	f0 91 e4 05 	lds	r31, 0x05E4
     2b0:	30 97       	sbiw	r30, 0x00	; 0
     2b2:	09 f0       	breq	.+2      	; 0x2b6 <__vector_13+0x5a>
     2b4:	09 95       	icall
     2b6:	57 98       	cbi	0x0a, 7	; 10
     2b8:	ff 91       	pop	r31
     2ba:	ef 91       	pop	r30
     2bc:	bf 91       	pop	r27
     2be:	af 91       	pop	r26
     2c0:	9f 91       	pop	r25
     2c2:	8f 91       	pop	r24
     2c4:	7f 91       	pop	r23
     2c6:	6f 91       	pop	r22
     2c8:	5f 91       	pop	r21
     2ca:	4f 91       	pop	r20
     2cc:	3f 91       	pop	r19
     2ce:	2f 91       	pop	r18
     2d0:	0f 90       	pop	r0
     2d2:	0f be       	out	0x3f, r0	; 63
     2d4:	0f 90       	pop	r0
     2d6:	1f 90       	pop	r1
     2d8:	18 95       	reti

000002da <__vector_15>:
     2da:	1f 92       	push	r1
     2dc:	0f 92       	push	r0
     2de:	0f b6       	in	r0, 0x3f	; 63
     2e0:	0f 92       	push	r0
     2e2:	11 24       	eor	r1, r1
     2e4:	2f 93       	push	r18
     2e6:	3f 93       	push	r19
     2e8:	4f 93       	push	r20
     2ea:	5f 93       	push	r21
     2ec:	6f 93       	push	r22
     2ee:	7f 93       	push	r23
     2f0:	8f 93       	push	r24
     2f2:	9f 93       	push	r25
     2f4:	af 93       	push	r26
     2f6:	bf 93       	push	r27
     2f8:	ef 93       	push	r30
     2fa:	ff 93       	push	r31
     2fc:	80 91 e8 05 	lds	r24, 0x05E8
     300:	8f 5f       	subi	r24, 0xFF	; 255
     302:	80 93 e8 05 	sts	0x05E8, r24
     306:	e0 91 e0 05 	lds	r30, 0x05E0
     30a:	f0 91 e1 05 	lds	r31, 0x05E1
     30e:	e8 0f       	add	r30, r24
     310:	f1 1d       	adc	r31, r1
     312:	e0 81       	ld	r30, Z
     314:	ee 23       	and	r30, r30
     316:	69 f4       	brne	.+26     	; 0x332 <__vector_15+0x58>
     318:	10 92 e8 05 	sts	0x05E8, r1
     31c:	10 92 e2 05 	sts	0x05E2, r1
     320:	e0 91 e3 05 	lds	r30, 0x05E3
     324:	f0 91 e4 05 	lds	r31, 0x05E4
     328:	30 97       	sbiw	r30, 0x00	; 0
     32a:	09 f0       	breq	.+2      	; 0x32e <__vector_15+0x54>
     32c:	09 95       	icall
     32e:	56 98       	cbi	0x0a, 6	; 10
     330:	01 c0       	rjmp	.+2      	; 0x334 <__vector_15+0x5a>
     332:	ec b9       	out	0x0c, r30	; 12
     334:	ff 91       	pop	r31
     336:	ef 91       	pop	r30
     338:	bf 91       	pop	r27
     33a:	af 91       	pop	r26
     33c:	9f 91       	pop	r25
     33e:	8f 91       	pop	r24
     340:	7f 91       	pop	r23
     342:	6f 91       	pop	r22
     344:	5f 91       	pop	r21
     346:	4f 91       	pop	r20
     348:	3f 91       	pop	r19
     34a:	2f 91       	pop	r18
     34c:	0f 90       	pop	r0
     34e:	0f be       	out	0x3f, r0	; 63
     350:	0f 90       	pop	r0
     352:	1f 90       	pop	r1
     354:	18 95       	reti

00000356 <TIMER0_vInit>:
     356:	83 b7       	in	r24, 0x33	; 51
     358:	80 64       	ori	r24, 0x40	; 64
     35a:	83 bf       	out	0x33, r24	; 51
     35c:	83 b7       	in	r24, 0x33	; 51
     35e:	88 60       	ori	r24, 0x08	; 8
     360:	83 bf       	out	0x33, r24	; 51
     362:	83 b7       	in	r24, 0x33	; 51
     364:	8f 7e       	andi	r24, 0xEF	; 239
     366:	83 bf       	out	0x33, r24	; 51
     368:	83 b7       	in	r24, 0x33	; 51
     36a:	80 62       	ori	r24, 0x20	; 32
     36c:	83 bf       	out	0x33, r24	; 51
     36e:	1c be       	out	0x3c, r1	; 60
     370:	83 b7       	in	r24, 0x33	; 51
     372:	88 7f       	andi	r24, 0xF8	; 248
     374:	83 bf       	out	0x33, r24	; 51
     376:	83 b7       	in	r24, 0x33	; 51
     378:	85 60       	ori	r24, 0x05	; 5
     37a:	83 bf       	out	0x33, r24	; 51
     37c:	08 95       	ret

0000037e <TIMER1_vInit>:
     37e:	8f b5       	in	r24, 0x2f	; 47
     380:	8e 7f       	andi	r24, 0xFE	; 254
     382:	8f bd       	out	0x2f, r24	; 47
     384:	8f b5       	in	r24, 0x2f	; 47
     386:	82 60       	ori	r24, 0x02	; 2
     388:	8f bd       	out	0x2f, r24	; 47
     38a:	8e b5       	in	r24, 0x2e	; 46
     38c:	88 60       	ori	r24, 0x08	; 8
     38e:	8e bd       	out	0x2e, r24	; 46
     390:	8e b5       	in	r24, 0x2e	; 46
     392:	80 61       	ori	r24, 0x10	; 16
     394:	8e bd       	out	0x2e, r24	; 46
     396:	1b bc       	out	0x2b, r1	; 43
     398:	1a bc       	out	0x2a, r1	; 42
     39a:	19 bc       	out	0x29, r1	; 41
     39c:	18 bc       	out	0x28, r1	; 40
     39e:	8f ef       	ldi	r24, 0xFF	; 255
     3a0:	90 e0       	ldi	r25, 0x00	; 0
     3a2:	97 bd       	out	0x27, r25	; 39
     3a4:	86 bd       	out	0x26, r24	; 38
     3a6:	8e b5       	in	r24, 0x2e	; 46
     3a8:	80 64       	ori	r24, 0x40	; 64
     3aa:	8e bd       	out	0x2e, r24	; 46
     3ac:	8f b5       	in	r24, 0x2f	; 47
     3ae:	8f 7b       	andi	r24, 0xBF	; 191
     3b0:	8f bd       	out	0x2f, r24	; 47
     3b2:	8f b5       	in	r24, 0x2f	; 47
     3b4:	80 68       	ori	r24, 0x80	; 128
     3b6:	8f bd       	out	0x2f, r24	; 47
     3b8:	8f b5       	in	r24, 0x2f	; 47
     3ba:	8f 7e       	andi	r24, 0xEF	; 239
     3bc:	8f bd       	out	0x2f, r24	; 47
     3be:	8f b5       	in	r24, 0x2f	; 47
     3c0:	80 62       	ori	r24, 0x20	; 32
     3c2:	8f bd       	out	0x2f, r24	; 47
     3c4:	89 b7       	in	r24, 0x39	; 57
     3c6:	8b 7f       	andi	r24, 0xFB	; 251
     3c8:	89 bf       	out	0x39, r24	; 57
     3ca:	89 b7       	in	r24, 0x39	; 57
     3cc:	8f 7e       	andi	r24, 0xEF	; 239
     3ce:	89 bf       	out	0x39, r24	; 57
     3d0:	89 b7       	in	r24, 0x39	; 57
     3d2:	87 7f       	andi	r24, 0xF7	; 247
     3d4:	89 bf       	out	0x39, r24	; 57
     3d6:	89 b7       	in	r24, 0x39	; 57
     3d8:	8f 7d       	andi	r24, 0xDF	; 223
     3da:	89 bf       	out	0x39, r24	; 57
     3dc:	8e b5       	in	r24, 0x2e	; 46
     3de:	88 7f       	andi	r24, 0xF8	; 248
     3e0:	8e bd       	out	0x2e, r24	; 46
     3e2:	8e b5       	in	r24, 0x2e	; 46
     3e4:	82 60       	ori	r24, 0x02	; 2
     3e6:	8e bd       	out	0x2e, r24	; 46
     3e8:	08 95       	ret

000003ea <TIMER2_vInit>:
     3ea:	85 b5       	in	r24, 0x25	; 37
     3ec:	80 64       	ori	r24, 0x40	; 64
     3ee:	85 bd       	out	0x25, r24	; 37
     3f0:	85 b5       	in	r24, 0x25	; 37
     3f2:	88 60       	ori	r24, 0x08	; 8
     3f4:	85 bd       	out	0x25, r24	; 37
     3f6:	85 b5       	in	r24, 0x25	; 37
     3f8:	8f 7e       	andi	r24, 0xEF	; 239
     3fa:	85 bd       	out	0x25, r24	; 37
     3fc:	85 b5       	in	r24, 0x25	; 37
     3fe:	80 62       	ori	r24, 0x20	; 32
     400:	85 bd       	out	0x25, r24	; 37
     402:	13 bc       	out	0x23, r1	; 35
     404:	85 b5       	in	r24, 0x25	; 37
     406:	88 7f       	andi	r24, 0xF8	; 248
     408:	85 bd       	out	0x25, r24	; 37
     40a:	85 b5       	in	r24, 0x25	; 37
     40c:	85 60       	ori	r24, 0x05	; 5
     40e:	85 bd       	out	0x25, r24	; 37
     410:	08 95       	ret

00000412 <TIMER0_vSetPreload>:
     412:	82 bf       	out	0x32, r24	; 50
     414:	08 95       	ret

00000416 <TIMER1_vSetPreload>:
     416:	9d bd       	out	0x2d, r25	; 45
     418:	8c bd       	out	0x2c, r24	; 44
     41a:	08 95       	ret

0000041c <TIMER2_vSetPreload>:
     41c:	84 bd       	out	0x24, r24	; 36
     41e:	08 95       	ret

00000420 <TIMER0_vSetCTC>:
     420:	8c bf       	out	0x3c, r24	; 60
     422:	08 95       	ret

00000424 <TIMER1_vSetCTCA>:
     424:	9b bd       	out	0x2b, r25	; 43
     426:	8a bd       	out	0x2a, r24	; 42
     428:	08 95       	ret

0000042a <TIMER1_vSetCTCB>:
     42a:	99 bd       	out	0x29, r25	; 41
     42c:	88 bd       	out	0x28, r24	; 40
     42e:	08 95       	ret

00000430 <TIMER2_vSetCTC>:
     430:	83 bd       	out	0x23, r24	; 35
     432:	08 95       	ret

00000434 <TIMER1_vSetICR1>:
     434:	97 bd       	out	0x27, r25	; 39
     436:	86 bd       	out	0x26, r24	; 38
     438:	08 95       	ret

0000043a <TIMER0_u8GetTimerCounterValue>:
     43a:	82 b7       	in	r24, 0x32	; 50
     43c:	08 95       	ret

0000043e <TIMER1_u16GetTimerCounterValue>:
     43e:	2c b5       	in	r18, 0x2c	; 44
     440:	3d b5       	in	r19, 0x2d	; 45
     442:	c9 01       	movw	r24, r18
     444:	08 95       	ret

00000446 <TIMER2_u8GetTimerCounterValue>:
     446:	84 b5       	in	r24, 0x24	; 36
     448:	08 95       	ret

0000044a <TIMER_vSetPWM>:
     44a:	9b bd       	out	0x2b, r25	; 43
     44c:	8a bd       	out	0x2a, r24	; 42
     44e:	08 95       	ret

00000450 <TIMER_vICUInitEnable>:
     450:	8e b5       	in	r24, 0x2e	; 46
     452:	80 64       	ori	r24, 0x40	; 64
     454:	8e bd       	out	0x2e, r24	; 46
     456:	89 b7       	in	r24, 0x39	; 57
     458:	80 62       	ori	r24, 0x20	; 32
     45a:	89 bf       	out	0x39, r24	; 57
     45c:	08 95       	ret

0000045e <TIMER_vICUSetTriggerEdge>:
     45e:	81 30       	cpi	r24, 0x01	; 1
     460:	29 f4       	brne	.+10     	; 0x46c <TIMER_vICUSetTriggerEdge+0xe>
     462:	8e b5       	in	r24, 0x2e	; 46
     464:	80 64       	ori	r24, 0x40	; 64
     466:	8e bd       	out	0x2e, r24	; 46
     468:	80 e0       	ldi	r24, 0x00	; 0
     46a:	08 95       	ret
     46c:	88 23       	and	r24, r24
     46e:	11 f0       	breq	.+4      	; 0x474 <TIMER_vICUSetTriggerEdge+0x16>
     470:	81 e0       	ldi	r24, 0x01	; 1
     472:	08 95       	ret
     474:	8e b5       	in	r24, 0x2e	; 46
     476:	8f 7b       	andi	r24, 0xBF	; 191
     478:	8e bd       	out	0x2e, r24	; 46
     47a:	80 e0       	ldi	r24, 0x00	; 0
     47c:	08 95       	ret

0000047e <TIMER_vICUEnableInterrupt>:
     47e:	89 b7       	in	r24, 0x39	; 57
     480:	80 62       	ori	r24, 0x20	; 32
     482:	89 bf       	out	0x39, r24	; 57
     484:	08 95       	ret

00000486 <TIMER_vICUDisableInterrupt>:
     486:	89 b7       	in	r24, 0x39	; 57
     488:	8f 7d       	andi	r24, 0xDF	; 223
     48a:	89 bf       	out	0x39, r24	; 57
     48c:	08 95       	ret

0000048e <TIMER_u16GetICR>:
     48e:	26 b5       	in	r18, 0x26	; 38
     490:	37 b5       	in	r19, 0x27	; 39
     492:	c9 01       	movw	r24, r18
     494:	08 95       	ret

00000496 <TIMER_vWDTSleep>:
     496:	81 b5       	in	r24, 0x21	; 33
     498:	88 7f       	andi	r24, 0xF8	; 248
     49a:	81 bd       	out	0x21, r24	; 33
     49c:	81 b5       	in	r24, 0x21	; 33
     49e:	86 60       	ori	r24, 0x06	; 6
     4a0:	81 bd       	out	0x21, r24	; 33
     4a2:	08 95       	ret

000004a4 <TIMER_vWDTEnable>:
     4a4:	81 b5       	in	r24, 0x21	; 33
     4a6:	88 60       	ori	r24, 0x08	; 8
     4a8:	81 bd       	out	0x21, r24	; 33
     4aa:	08 95       	ret

000004ac <TIMER_vWDTDisable>:
     4ac:	81 b5       	in	r24, 0x21	; 33
     4ae:	88 61       	ori	r24, 0x18	; 24
     4b0:	81 bd       	out	0x21, r24	; 33
     4b2:	11 bc       	out	0x21, r1	; 33
     4b4:	08 95       	ret

000004b6 <TIMER_u8SetCallBack>:
     4b6:	00 97       	sbiw	r24, 0x00	; 0
     4b8:	11 f4       	brne	.+4      	; 0x4be <TIMER_u8SetCallBack+0x8>
     4ba:	82 e0       	ldi	r24, 0x02	; 2
     4bc:	08 95       	ret
     4be:	e6 2f       	mov	r30, r22
     4c0:	f0 e0       	ldi	r31, 0x00	; 0
     4c2:	ee 0f       	add	r30, r30
     4c4:	ff 1f       	adc	r31, r31
     4c6:	e7 51       	subi	r30, 0x17	; 23
     4c8:	fa 4f       	sbci	r31, 0xFA	; 250
     4ca:	91 83       	std	Z+1, r25	; 0x01
     4cc:	80 83       	st	Z, r24
     4ce:	80 e0       	ldi	r24, 0x00	; 0
     4d0:	08 95       	ret

000004d2 <__vector_11>:
     4d2:	1f 92       	push	r1
     4d4:	0f 92       	push	r0
     4d6:	0f b6       	in	r0, 0x3f	; 63
     4d8:	0f 92       	push	r0
     4da:	11 24       	eor	r1, r1
     4dc:	2f 93       	push	r18
     4de:	3f 93       	push	r19
     4e0:	4f 93       	push	r20
     4e2:	5f 93       	push	r21
     4e4:	6f 93       	push	r22
     4e6:	7f 93       	push	r23
     4e8:	8f 93       	push	r24
     4ea:	9f 93       	push	r25
     4ec:	af 93       	push	r26
     4ee:	bf 93       	push	r27
     4f0:	ef 93       	push	r30
     4f2:	ff 93       	push	r31
     4f4:	e0 91 ff 05 	lds	r30, 0x05FF
     4f8:	f0 91 00 06 	lds	r31, 0x0600
     4fc:	30 97       	sbiw	r30, 0x00	; 0
     4fe:	09 f0       	breq	.+2      	; 0x502 <__vector_11+0x30>
     500:	09 95       	icall
     502:	ff 91       	pop	r31
     504:	ef 91       	pop	r30
     506:	bf 91       	pop	r27
     508:	af 91       	pop	r26
     50a:	9f 91       	pop	r25
     50c:	8f 91       	pop	r24
     50e:	7f 91       	pop	r23
     510:	6f 91       	pop	r22
     512:	5f 91       	pop	r21
     514:	4f 91       	pop	r20
     516:	3f 91       	pop	r19
     518:	2f 91       	pop	r18
     51a:	0f 90       	pop	r0
     51c:	0f be       	out	0x3f, r0	; 63
     51e:	0f 90       	pop	r0
     520:	1f 90       	pop	r1
     522:	18 95       	reti

00000524 <__vector_10>:
     524:	1f 92       	push	r1
     526:	0f 92       	push	r0
     528:	0f b6       	in	r0, 0x3f	; 63
     52a:	0f 92       	push	r0
     52c:	11 24       	eor	r1, r1
     52e:	2f 93       	push	r18
     530:	3f 93       	push	r19
     532:	4f 93       	push	r20
     534:	5f 93       	push	r21
     536:	6f 93       	push	r22
     538:	7f 93       	push	r23
     53a:	8f 93       	push	r24
     53c:	9f 93       	push	r25
     53e:	af 93       	push	r26
     540:	bf 93       	push	r27
     542:	ef 93       	push	r30
     544:	ff 93       	push	r31
     546:	e0 91 fd 05 	lds	r30, 0x05FD
     54a:	f0 91 fe 05 	lds	r31, 0x05FE
     54e:	30 97       	sbiw	r30, 0x00	; 0
     550:	09 f0       	breq	.+2      	; 0x554 <__vector_10+0x30>
     552:	09 95       	icall
     554:	ff 91       	pop	r31
     556:	ef 91       	pop	r30
     558:	bf 91       	pop	r27
     55a:	af 91       	pop	r26
     55c:	9f 91       	pop	r25
     55e:	8f 91       	pop	r24
     560:	7f 91       	pop	r23
     562:	6f 91       	pop	r22
     564:	5f 91       	pop	r21
     566:	4f 91       	pop	r20
     568:	3f 91       	pop	r19
     56a:	2f 91       	pop	r18
     56c:	0f 90       	pop	r0
     56e:	0f be       	out	0x3f, r0	; 63
     570:	0f 90       	pop	r0
     572:	1f 90       	pop	r1
     574:	18 95       	reti

00000576 <__vector_9>:
     576:	1f 92       	push	r1
     578:	0f 92       	push	r0
     57a:	0f b6       	in	r0, 0x3f	; 63
     57c:	0f 92       	push	r0
     57e:	11 24       	eor	r1, r1
     580:	2f 93       	push	r18
     582:	3f 93       	push	r19
     584:	4f 93       	push	r20
     586:	5f 93       	push	r21
     588:	6f 93       	push	r22
     58a:	7f 93       	push	r23
     58c:	8f 93       	push	r24
     58e:	9f 93       	push	r25
     590:	af 93       	push	r26
     592:	bf 93       	push	r27
     594:	ef 93       	push	r30
     596:	ff 93       	push	r31
     598:	e0 91 fb 05 	lds	r30, 0x05FB
     59c:	f0 91 fc 05 	lds	r31, 0x05FC
     5a0:	30 97       	sbiw	r30, 0x00	; 0
     5a2:	09 f0       	breq	.+2      	; 0x5a6 <__vector_9+0x30>
     5a4:	09 95       	icall
     5a6:	ff 91       	pop	r31
     5a8:	ef 91       	pop	r30
     5aa:	bf 91       	pop	r27
     5ac:	af 91       	pop	r26
     5ae:	9f 91       	pop	r25
     5b0:	8f 91       	pop	r24
     5b2:	7f 91       	pop	r23
     5b4:	6f 91       	pop	r22
     5b6:	5f 91       	pop	r21
     5b8:	4f 91       	pop	r20
     5ba:	3f 91       	pop	r19
     5bc:	2f 91       	pop	r18
     5be:	0f 90       	pop	r0
     5c0:	0f be       	out	0x3f, r0	; 63
     5c2:	0f 90       	pop	r0
     5c4:	1f 90       	pop	r1
     5c6:	18 95       	reti

000005c8 <__vector_8>:
     5c8:	1f 92       	push	r1
     5ca:	0f 92       	push	r0
     5cc:	0f b6       	in	r0, 0x3f	; 63
     5ce:	0f 92       	push	r0
     5d0:	11 24       	eor	r1, r1
     5d2:	2f 93       	push	r18
     5d4:	3f 93       	push	r19
     5d6:	4f 93       	push	r20
     5d8:	5f 93       	push	r21
     5da:	6f 93       	push	r22
     5dc:	7f 93       	push	r23
     5de:	8f 93       	push	r24
     5e0:	9f 93       	push	r25
     5e2:	af 93       	push	r26
     5e4:	bf 93       	push	r27
     5e6:	ef 93       	push	r30
     5e8:	ff 93       	push	r31
     5ea:	e0 91 f9 05 	lds	r30, 0x05F9
     5ee:	f0 91 fa 05 	lds	r31, 0x05FA
     5f2:	30 97       	sbiw	r30, 0x00	; 0
     5f4:	09 f0       	breq	.+2      	; 0x5f8 <__vector_8+0x30>
     5f6:	09 95       	icall
     5f8:	ff 91       	pop	r31
     5fa:	ef 91       	pop	r30
     5fc:	bf 91       	pop	r27
     5fe:	af 91       	pop	r26
     600:	9f 91       	pop	r25
     602:	8f 91       	pop	r24
     604:	7f 91       	pop	r23
     606:	6f 91       	pop	r22
     608:	5f 91       	pop	r21
     60a:	4f 91       	pop	r20
     60c:	3f 91       	pop	r19
     60e:	2f 91       	pop	r18
     610:	0f 90       	pop	r0
     612:	0f be       	out	0x3f, r0	; 63
     614:	0f 90       	pop	r0
     616:	1f 90       	pop	r1
     618:	18 95       	reti

0000061a <__vector_7>:
     61a:	1f 92       	push	r1
     61c:	0f 92       	push	r0
     61e:	0f b6       	in	r0, 0x3f	; 63
     620:	0f 92       	push	r0
     622:	11 24       	eor	r1, r1
     624:	2f 93       	push	r18
     626:	3f 93       	push	r19
     628:	4f 93       	push	r20
     62a:	5f 93       	push	r21
     62c:	6f 93       	push	r22
     62e:	7f 93       	push	r23
     630:	8f 93       	push	r24
     632:	9f 93       	push	r25
     634:	af 93       	push	r26
     636:	bf 93       	push	r27
     638:	ef 93       	push	r30
     63a:	ff 93       	push	r31
     63c:	e0 91 f7 05 	lds	r30, 0x05F7
     640:	f0 91 f8 05 	lds	r31, 0x05F8
     644:	30 97       	sbiw	r30, 0x00	; 0
     646:	09 f0       	breq	.+2      	; 0x64a <__vector_7+0x30>
     648:	09 95       	icall
     64a:	ff 91       	pop	r31
     64c:	ef 91       	pop	r30
     64e:	bf 91       	pop	r27
     650:	af 91       	pop	r26
     652:	9f 91       	pop	r25
     654:	8f 91       	pop	r24
     656:	7f 91       	pop	r23
     658:	6f 91       	pop	r22
     65a:	5f 91       	pop	r21
     65c:	4f 91       	pop	r20
     65e:	3f 91       	pop	r19
     660:	2f 91       	pop	r18
     662:	0f 90       	pop	r0
     664:	0f be       	out	0x3f, r0	; 63
     666:	0f 90       	pop	r0
     668:	1f 90       	pop	r1
     66a:	18 95       	reti

0000066c <__vector_6>:
     66c:	1f 92       	push	r1
     66e:	0f 92       	push	r0
     670:	0f b6       	in	r0, 0x3f	; 63
     672:	0f 92       	push	r0
     674:	11 24       	eor	r1, r1
     676:	2f 93       	push	r18
     678:	3f 93       	push	r19
     67a:	4f 93       	push	r20
     67c:	5f 93       	push	r21
     67e:	6f 93       	push	r22
     680:	7f 93       	push	r23
     682:	8f 93       	push	r24
     684:	9f 93       	push	r25
     686:	af 93       	push	r26
     688:	bf 93       	push	r27
     68a:	ef 93       	push	r30
     68c:	ff 93       	push	r31
     68e:	e0 91 f5 05 	lds	r30, 0x05F5
     692:	f0 91 f6 05 	lds	r31, 0x05F6
     696:	30 97       	sbiw	r30, 0x00	; 0
     698:	09 f0       	breq	.+2      	; 0x69c <__vector_6+0x30>
     69a:	09 95       	icall
     69c:	ff 91       	pop	r31
     69e:	ef 91       	pop	r30
     6a0:	bf 91       	pop	r27
     6a2:	af 91       	pop	r26
     6a4:	9f 91       	pop	r25
     6a6:	8f 91       	pop	r24
     6a8:	7f 91       	pop	r23
     6aa:	6f 91       	pop	r22
     6ac:	5f 91       	pop	r21
     6ae:	4f 91       	pop	r20
     6b0:	3f 91       	pop	r19
     6b2:	2f 91       	pop	r18
     6b4:	0f 90       	pop	r0
     6b6:	0f be       	out	0x3f, r0	; 63
     6b8:	0f 90       	pop	r0
     6ba:	1f 90       	pop	r1
     6bc:	18 95       	reti

000006be <__vector_5>:
     6be:	1f 92       	push	r1
     6c0:	0f 92       	push	r0
     6c2:	0f b6       	in	r0, 0x3f	; 63
     6c4:	0f 92       	push	r0
     6c6:	11 24       	eor	r1, r1
     6c8:	2f 93       	push	r18
     6ca:	3f 93       	push	r19
     6cc:	4f 93       	push	r20
     6ce:	5f 93       	push	r21
     6d0:	6f 93       	push	r22
     6d2:	7f 93       	push	r23
     6d4:	8f 93       	push	r24
     6d6:	9f 93       	push	r25
     6d8:	af 93       	push	r26
     6da:	bf 93       	push	r27
     6dc:	ef 93       	push	r30
     6de:	ff 93       	push	r31
     6e0:	e0 91 f3 05 	lds	r30, 0x05F3
     6e4:	f0 91 f4 05 	lds	r31, 0x05F4
     6e8:	30 97       	sbiw	r30, 0x00	; 0
     6ea:	09 f0       	breq	.+2      	; 0x6ee <__vector_5+0x30>
     6ec:	09 95       	icall
     6ee:	ff 91       	pop	r31
     6f0:	ef 91       	pop	r30
     6f2:	bf 91       	pop	r27
     6f4:	af 91       	pop	r26
     6f6:	9f 91       	pop	r25
     6f8:	8f 91       	pop	r24
     6fa:	7f 91       	pop	r23
     6fc:	6f 91       	pop	r22
     6fe:	5f 91       	pop	r21
     700:	4f 91       	pop	r20
     702:	3f 91       	pop	r19
     704:	2f 91       	pop	r18
     706:	0f 90       	pop	r0
     708:	0f be       	out	0x3f, r0	; 63
     70a:	0f 90       	pop	r0
     70c:	1f 90       	pop	r1
     70e:	18 95       	reti

00000710 <__vector_4>:
     710:	1f 92       	push	r1
     712:	0f 92       	push	r0
     714:	0f b6       	in	r0, 0x3f	; 63
     716:	0f 92       	push	r0
     718:	11 24       	eor	r1, r1
     71a:	2f 93       	push	r18
     71c:	3f 93       	push	r19
     71e:	4f 93       	push	r20
     720:	5f 93       	push	r21
     722:	6f 93       	push	r22
     724:	7f 93       	push	r23
     726:	8f 93       	push	r24
     728:	9f 93       	push	r25
     72a:	af 93       	push	r26
     72c:	bf 93       	push	r27
     72e:	ef 93       	push	r30
     730:	ff 93       	push	r31
     732:	e0 91 f1 05 	lds	r30, 0x05F1
     736:	f0 91 f2 05 	lds	r31, 0x05F2
     73a:	30 97       	sbiw	r30, 0x00	; 0
     73c:	09 f0       	breq	.+2      	; 0x740 <__vector_4+0x30>
     73e:	09 95       	icall
     740:	ff 91       	pop	r31
     742:	ef 91       	pop	r30
     744:	bf 91       	pop	r27
     746:	af 91       	pop	r26
     748:	9f 91       	pop	r25
     74a:	8f 91       	pop	r24
     74c:	7f 91       	pop	r23
     74e:	6f 91       	pop	r22
     750:	5f 91       	pop	r21
     752:	4f 91       	pop	r20
     754:	3f 91       	pop	r19
     756:	2f 91       	pop	r18
     758:	0f 90       	pop	r0
     75a:	0f be       	out	0x3f, r0	; 63
     75c:	0f 90       	pop	r0
     75e:	1f 90       	pop	r1
     760:	18 95       	reti

00000762 <SPI_u8InitConfig>:
     762:	fc 01       	movw	r30, r24
     764:	00 97       	sbiw	r24, 0x00	; 0
     766:	09 f4       	brne	.+2      	; 0x76a <SPI_u8InitConfig+0x8>
     768:	74 c0       	rjmp	.+232    	; 0x852 <SPI_u8InitConfig+0xf0>
     76a:	45 81       	ldd	r20, Z+5	; 0x05
     76c:	44 23       	and	r20, r20
     76e:	09 f4       	brne	.+2      	; 0x772 <SPI_u8InitConfig+0x10>
     770:	70 c0       	rjmp	.+224    	; 0x852 <SPI_u8InitConfig+0xf0>
     772:	34 81       	ldd	r19, Z+4	; 0x04
     774:	33 23       	and	r19, r19
     776:	09 f4       	brne	.+2      	; 0x77a <SPI_u8InitConfig+0x18>
     778:	6c c0       	rjmp	.+216    	; 0x852 <SPI_u8InitConfig+0xf0>
     77a:	26 81       	ldd	r18, Z+6	; 0x06
     77c:	22 23       	and	r18, r18
     77e:	09 f4       	brne	.+2      	; 0x782 <SPI_u8InitConfig+0x20>
     780:	68 c0       	rjmp	.+208    	; 0x852 <SPI_u8InitConfig+0xf0>
     782:	52 81       	ldd	r21, Z+2	; 0x02
     784:	55 23       	and	r21, r21
     786:	09 f4       	brne	.+2      	; 0x78a <SPI_u8InitConfig+0x28>
     788:	64 c0       	rjmp	.+200    	; 0x852 <SPI_u8InitConfig+0xf0>
     78a:	70 81       	ld	r23, Z
     78c:	77 23       	and	r23, r23
     78e:	09 f4       	brne	.+2      	; 0x792 <SPI_u8InitConfig+0x30>
     790:	60 c0       	rjmp	.+192    	; 0x852 <SPI_u8InitConfig+0xf0>
     792:	63 81       	ldd	r22, Z+3	; 0x03
     794:	66 23       	and	r22, r22
     796:	09 f4       	brne	.+2      	; 0x79a <SPI_u8InitConfig+0x38>
     798:	5c c0       	rjmp	.+184    	; 0x852 <SPI_u8InitConfig+0xf0>
     79a:	91 81       	ldd	r25, Z+1	; 0x01
     79c:	99 23       	and	r25, r25
     79e:	09 f4       	brne	.+2      	; 0x7a2 <SPI_u8InitConfig+0x40>
     7a0:	58 c0       	rjmp	.+176    	; 0x852 <SPI_u8InitConfig+0xf0>
     7a2:	41 30       	cpi	r20, 0x01	; 1
     7a4:	11 f0       	breq	.+4      	; 0x7aa <SPI_u8InitConfig+0x48>
     7a6:	81 e0       	ldi	r24, 0x01	; 1
     7a8:	02 c0       	rjmp	.+4      	; 0x7ae <SPI_u8InitConfig+0x4c>
     7aa:	6a 9a       	sbi	0x0d, 2	; 13
     7ac:	80 e0       	ldi	r24, 0x00	; 0
     7ae:	33 23       	and	r19, r19
     7b0:	21 f0       	breq	.+8      	; 0x7ba <SPI_u8InitConfig+0x58>
     7b2:	31 30       	cpi	r19, 0x01	; 1
     7b4:	21 f0       	breq	.+8      	; 0x7be <SPI_u8InitConfig+0x5c>
     7b6:	81 e0       	ldi	r24, 0x01	; 1
     7b8:	03 c0       	rjmp	.+6      	; 0x7c0 <SPI_u8InitConfig+0x5e>
     7ba:	6b 98       	cbi	0x0d, 3	; 13
     7bc:	01 c0       	rjmp	.+2      	; 0x7c0 <SPI_u8InitConfig+0x5e>
     7be:	6b 9a       	sbi	0x0d, 3	; 13
     7c0:	23 30       	cpi	r18, 0x03	; 3
     7c2:	b9 f0       	breq	.+46     	; 0x7f2 <SPI_u8InitConfig+0x90>
     7c4:	24 30       	cpi	r18, 0x04	; 4
     7c6:	28 f4       	brcc	.+10     	; 0x7d2 <SPI_u8InitConfig+0x70>
     7c8:	21 30       	cpi	r18, 0x01	; 1
     7ca:	69 f0       	breq	.+26     	; 0x7e6 <SPI_u8InitConfig+0x84>
     7cc:	22 30       	cpi	r18, 0x02	; 2
     7ce:	68 f4       	brcc	.+26     	; 0x7ea <SPI_u8InitConfig+0x88>
     7d0:	08 c0       	rjmp	.+16     	; 0x7e2 <SPI_u8InitConfig+0x80>
     7d2:	25 30       	cpi	r18, 0x05	; 5
     7d4:	a1 f0       	breq	.+40     	; 0x7fe <SPI_u8InitConfig+0x9c>
     7d6:	25 30       	cpi	r18, 0x05	; 5
     7d8:	78 f0       	brcs	.+30     	; 0x7f8 <SPI_u8InitConfig+0x96>
     7da:	26 30       	cpi	r18, 0x06	; 6
     7dc:	91 f0       	breq	.+36     	; 0x802 <SPI_u8InitConfig+0xa0>
     7de:	81 e0       	ldi	r24, 0x01	; 1
     7e0:	13 c0       	rjmp	.+38     	; 0x808 <SPI_u8InitConfig+0xa6>
     7e2:	68 98       	cbi	0x0d, 0	; 13
     7e4:	03 c0       	rjmp	.+6      	; 0x7ec <SPI_u8InitConfig+0x8a>
     7e6:	68 98       	cbi	0x0d, 0	; 13
     7e8:	05 c0       	rjmp	.+10     	; 0x7f4 <SPI_u8InitConfig+0x92>
     7ea:	68 9a       	sbi	0x0d, 0	; 13
     7ec:	69 98       	cbi	0x0d, 1	; 13
     7ee:	70 9a       	sbi	0x0e, 0	; 14
     7f0:	0b c0       	rjmp	.+22     	; 0x808 <SPI_u8InitConfig+0xa6>
     7f2:	68 9a       	sbi	0x0d, 0	; 13
     7f4:	69 98       	cbi	0x0d, 1	; 13
     7f6:	07 c0       	rjmp	.+14     	; 0x806 <SPI_u8InitConfig+0xa4>
     7f8:	68 98       	cbi	0x0d, 0	; 13
     7fa:	69 9a       	sbi	0x0d, 1	; 13
     7fc:	f8 cf       	rjmp	.-16     	; 0x7ee <SPI_u8InitConfig+0x8c>
     7fe:	68 98       	cbi	0x0d, 0	; 13
     800:	01 c0       	rjmp	.+2      	; 0x804 <SPI_u8InitConfig+0xa2>
     802:	68 9a       	sbi	0x0d, 0	; 13
     804:	69 9a       	sbi	0x0d, 1	; 13
     806:	70 98       	cbi	0x0e, 0	; 14
     808:	55 23       	and	r21, r21
     80a:	31 f0       	breq	.+12     	; 0x818 <SPI_u8InitConfig+0xb6>
     80c:	51 30       	cpi	r21, 0x01	; 1
     80e:	11 f0       	breq	.+4      	; 0x814 <SPI_u8InitConfig+0xb2>
     810:	81 e0       	ldi	r24, 0x01	; 1
     812:	03 c0       	rjmp	.+6      	; 0x81a <SPI_u8InitConfig+0xb8>
     814:	6d 98       	cbi	0x0d, 5	; 13
     816:	01 c0       	rjmp	.+2      	; 0x81a <SPI_u8InitConfig+0xb8>
     818:	6d 9a       	sbi	0x0d, 5	; 13
     81a:	66 23       	and	r22, r22
     81c:	21 f0       	breq	.+8      	; 0x826 <SPI_u8InitConfig+0xc4>
     81e:	61 30       	cpi	r22, 0x01	; 1
     820:	21 f0       	breq	.+8      	; 0x82a <SPI_u8InitConfig+0xc8>
     822:	81 e0       	ldi	r24, 0x01	; 1
     824:	03 c0       	rjmp	.+6      	; 0x82c <SPI_u8InitConfig+0xca>
     826:	6c 9a       	sbi	0x0d, 4	; 13
     828:	01 c0       	rjmp	.+2      	; 0x82c <SPI_u8InitConfig+0xca>
     82a:	6c 98       	cbi	0x0d, 4	; 13
     82c:	77 23       	and	r23, r23
     82e:	21 f0       	breq	.+8      	; 0x838 <SPI_u8InitConfig+0xd6>
     830:	71 30       	cpi	r23, 0x01	; 1
     832:	21 f0       	breq	.+8      	; 0x83c <SPI_u8InitConfig+0xda>
     834:	81 e0       	ldi	r24, 0x01	; 1
     836:	03 c0       	rjmp	.+6      	; 0x83e <SPI_u8InitConfig+0xdc>
     838:	6f 98       	cbi	0x0d, 7	; 13
     83a:	01 c0       	rjmp	.+2      	; 0x83e <SPI_u8InitConfig+0xdc>
     83c:	6f 9a       	sbi	0x0d, 7	; 13
     83e:	99 23       	and	r25, r25
     840:	21 f0       	breq	.+8      	; 0x84a <SPI_u8InitConfig+0xe8>
     842:	91 30       	cpi	r25, 0x01	; 1
     844:	21 f0       	breq	.+8      	; 0x84e <SPI_u8InitConfig+0xec>
     846:	81 e0       	ldi	r24, 0x01	; 1
     848:	08 95       	ret
     84a:	6e 98       	cbi	0x0d, 6	; 13
     84c:	08 95       	ret
     84e:	6e 9a       	sbi	0x0d, 6	; 13
     850:	08 95       	ret
     852:	82 e0       	ldi	r24, 0x02	; 2
     854:	08 95       	ret

00000856 <SPI_u8Tranceive>:
     856:	98 2f       	mov	r25, r24
     858:	fb 01       	movw	r30, r22
     85a:	80 91 fb 05 	lds	r24, 0x05FB
     85e:	88 23       	and	r24, r24
     860:	11 f0       	breq	.+4      	; 0x866 <__stack+0x7>
     862:	83 e0       	ldi	r24, 0x03	; 3
     864:	08 95       	ret
     866:	9f b9       	out	0x0f, r25	; 15
     868:	80 e0       	ldi	r24, 0x00	; 0
     86a:	90 e0       	ldi	r25, 0x00	; 0
     86c:	a0 e0       	ldi	r26, 0x00	; 0
     86e:	b0 e0       	ldi	r27, 0x00	; 0
     870:	03 c0       	rjmp	.+6      	; 0x878 <__stack+0x19>
     872:	01 96       	adiw	r24, 0x01	; 1
     874:	a1 1d       	adc	r26, r1
     876:	b1 1d       	adc	r27, r1
     878:	77 9b       	sbis	0x0e, 7	; 14
     87a:	06 c0       	rjmp	.+12     	; 0x888 <__stack+0x29>
     87c:	80 51       	subi	r24, 0x10	; 16
     87e:	97 42       	sbci	r25, 0x27	; 39
     880:	a0 40       	sbci	r26, 0x00	; 0
     882:	b0 40       	sbci	r27, 0x00	; 0
     884:	51 f4       	brne	.+20     	; 0x89a <__stack+0x3b>
     886:	0d c0       	rjmp	.+26     	; 0x8a2 <__stack+0x43>
     888:	80 31       	cpi	r24, 0x10	; 16
     88a:	27 e2       	ldi	r18, 0x27	; 39
     88c:	92 07       	cpc	r25, r18
     88e:	20 e0       	ldi	r18, 0x00	; 0
     890:	a2 07       	cpc	r26, r18
     892:	20 e0       	ldi	r18, 0x00	; 0
     894:	b2 07       	cpc	r27, r18
     896:	69 f7       	brne	.-38     	; 0x872 <__stack+0x13>
     898:	04 c0       	rjmp	.+8      	; 0x8a2 <__stack+0x43>
     89a:	8f b1       	in	r24, 0x0f	; 15
     89c:	80 83       	st	Z, r24
     89e:	80 e0       	ldi	r24, 0x00	; 0
     8a0:	01 c0       	rjmp	.+2      	; 0x8a4 <__stack+0x45>
     8a2:	84 e0       	ldi	r24, 0x04	; 4
     8a4:	10 92 fb 05 	sts	0x05FB, r1
     8a8:	08 95       	ret

000008aa <SPI_u8BufferTranceiverSynch>:
     8aa:	df 92       	push	r13
     8ac:	ef 92       	push	r14
     8ae:	ff 92       	push	r15
     8b0:	0f 93       	push	r16
     8b2:	1f 93       	push	r17
     8b4:	cf 93       	push	r28
     8b6:	df 93       	push	r29
     8b8:	7b 01       	movw	r14, r22
     8ba:	d4 2e       	mov	r13, r20
     8bc:	00 97       	sbiw	r24, 0x00	; 0
     8be:	a1 f0       	breq	.+40     	; 0x8e8 <SPI_u8BufferTranceiverSynch+0x3e>
     8c0:	61 15       	cp	r22, r1
     8c2:	71 05       	cpc	r23, r1
     8c4:	89 f0       	breq	.+34     	; 0x8e8 <SPI_u8BufferTranceiverSynch+0x3e>
     8c6:	8c 01       	movw	r16, r24
     8c8:	c0 e0       	ldi	r28, 0x00	; 0
     8ca:	d0 e0       	ldi	r29, 0x00	; 0
     8cc:	09 c0       	rjmp	.+18     	; 0x8e0 <SPI_u8BufferTranceiverSynch+0x36>
     8ce:	b7 01       	movw	r22, r14
     8d0:	6c 0f       	add	r22, r28
     8d2:	7d 1f       	adc	r23, r29
     8d4:	f8 01       	movw	r30, r16
     8d6:	81 91       	ld	r24, Z+
     8d8:	8f 01       	movw	r16, r30
     8da:	0e 94 2b 04 	call	0x856	; 0x856 <SPI_u8Tranceive>
     8de:	21 96       	adiw	r28, 0x01	; 1
     8e0:	cd 15       	cp	r28, r13
     8e2:	a8 f3       	brcs	.-22     	; 0x8ce <SPI_u8BufferTranceiverSynch+0x24>
     8e4:	80 e0       	ldi	r24, 0x00	; 0
     8e6:	01 c0       	rjmp	.+2      	; 0x8ea <SPI_u8BufferTranceiverSynch+0x40>
     8e8:	82 e0       	ldi	r24, 0x02	; 2
     8ea:	df 91       	pop	r29
     8ec:	cf 91       	pop	r28
     8ee:	1f 91       	pop	r17
     8f0:	0f 91       	pop	r16
     8f2:	ff 90       	pop	r15
     8f4:	ef 90       	pop	r14
     8f6:	df 90       	pop	r13
     8f8:	08 95       	ret

000008fa <SPI_u8BufferTranceiverAsynch>:
     8fa:	fc 01       	movw	r30, r24
     8fc:	80 91 fb 05 	lds	r24, 0x05FB
     900:	88 23       	and	r24, r24
     902:	11 f0       	breq	.+4      	; 0x908 <SPI_u8BufferTranceiverAsynch+0xe>
     904:	83 e0       	ldi	r24, 0x03	; 3
     906:	08 95       	ret
     908:	30 97       	sbiw	r30, 0x00	; 0
     90a:	39 f1       	breq	.+78     	; 0x95a <SPI_u8BufferTranceiverAsynch+0x60>
     90c:	a0 81       	ld	r26, Z
     90e:	b1 81       	ldd	r27, Z+1	; 0x01
     910:	10 97       	sbiw	r26, 0x00	; 0
     912:	19 f1       	breq	.+70     	; 0x95a <SPI_u8BufferTranceiverAsynch+0x60>
     914:	42 81       	ldd	r20, Z+2	; 0x02
     916:	53 81       	ldd	r21, Z+3	; 0x03
     918:	41 15       	cp	r20, r1
     91a:	51 05       	cpc	r21, r1
     91c:	f1 f0       	breq	.+60     	; 0x95a <SPI_u8BufferTranceiverAsynch+0x60>
     91e:	25 81       	ldd	r18, Z+5	; 0x05
     920:	36 81       	ldd	r19, Z+6	; 0x06
     922:	21 15       	cp	r18, r1
     924:	31 05       	cpc	r19, r1
     926:	c9 f0       	breq	.+50     	; 0x95a <SPI_u8BufferTranceiverAsynch+0x60>
     928:	81 e0       	ldi	r24, 0x01	; 1
     92a:	80 93 fb 05 	sts	0x05FB, r24
     92e:	b0 93 ff 05 	sts	0x05FF, r27
     932:	a0 93 fe 05 	sts	0x05FE, r26
     936:	50 93 fa 05 	sts	0x05FA, r21
     93a:	40 93 f9 05 	sts	0x05F9, r20
     93e:	84 81       	ldd	r24, Z+4	; 0x04
     940:	80 93 00 06 	sts	0x0600, r24
     944:	30 93 fd 05 	sts	0x05FD, r19
     948:	20 93 fc 05 	sts	0x05FC, r18
     94c:	10 92 01 06 	sts	0x0601, r1
     950:	8c 91       	ld	r24, X
     952:	8f b9       	out	0x0f, r24	; 15
     954:	6f 9a       	sbi	0x0d, 7	; 13
     956:	80 e0       	ldi	r24, 0x00	; 0
     958:	08 95       	ret
     95a:	82 e0       	ldi	r24, 0x02	; 2
     95c:	08 95       	ret

0000095e <__vector_12>:
     95e:	1f 92       	push	r1
     960:	0f 92       	push	r0
     962:	0f b6       	in	r0, 0x3f	; 63
     964:	0f 92       	push	r0
     966:	11 24       	eor	r1, r1
     968:	2f 93       	push	r18
     96a:	3f 93       	push	r19
     96c:	4f 93       	push	r20
     96e:	5f 93       	push	r21
     970:	6f 93       	push	r22
     972:	7f 93       	push	r23
     974:	8f 93       	push	r24
     976:	9f 93       	push	r25
     978:	af 93       	push	r26
     97a:	bf 93       	push	r27
     97c:	ef 93       	push	r30
     97e:	ff 93       	push	r31
     980:	90 91 01 06 	lds	r25, 0x0601
     984:	8f b1       	in	r24, 0x0f	; 15
     986:	e0 91 f9 05 	lds	r30, 0x05F9
     98a:	f0 91 fa 05 	lds	r31, 0x05FA
     98e:	e9 0f       	add	r30, r25
     990:	f1 1d       	adc	r31, r1
     992:	80 83       	st	Z, r24
     994:	9f 5f       	subi	r25, 0xFF	; 255
     996:	90 93 01 06 	sts	0x0601, r25
     99a:	80 91 00 06 	lds	r24, 0x0600
     99e:	98 17       	cp	r25, r24
     9a0:	59 f4       	brne	.+22     	; 0x9b8 <__vector_12+0x5a>
     9a2:	10 92 fb 05 	sts	0x05FB, r1
     9a6:	6f 98       	cbi	0x0d, 7	; 13
     9a8:	e0 91 fc 05 	lds	r30, 0x05FC
     9ac:	f0 91 fd 05 	lds	r31, 0x05FD
     9b0:	30 97       	sbiw	r30, 0x00	; 0
     9b2:	51 f0       	breq	.+20     	; 0x9c8 <__vector_12+0x6a>
     9b4:	09 95       	icall
     9b6:	08 c0       	rjmp	.+16     	; 0x9c8 <__vector_12+0x6a>
     9b8:	e0 91 fe 05 	lds	r30, 0x05FE
     9bc:	f0 91 ff 05 	lds	r31, 0x05FF
     9c0:	e9 0f       	add	r30, r25
     9c2:	f1 1d       	adc	r31, r1
     9c4:	80 81       	ld	r24, Z
     9c6:	8f b9       	out	0x0f, r24	; 15
     9c8:	ff 91       	pop	r31
     9ca:	ef 91       	pop	r30
     9cc:	bf 91       	pop	r27
     9ce:	af 91       	pop	r26
     9d0:	9f 91       	pop	r25
     9d2:	8f 91       	pop	r24
     9d4:	7f 91       	pop	r23
     9d6:	6f 91       	pop	r22
     9d8:	5f 91       	pop	r21
     9da:	4f 91       	pop	r20
     9dc:	3f 91       	pop	r19
     9de:	2f 91       	pop	r18
     9e0:	0f 90       	pop	r0
     9e2:	0f be       	out	0x3f, r0	; 63
     9e4:	0f 90       	pop	r0
     9e6:	1f 90       	pop	r1
     9e8:	18 95       	reti

000009ea <SPI_vInit>:
     9ea:	6d 98       	cbi	0x0d, 5	; 13
     9ec:	6c 9a       	sbi	0x0d, 4	; 13
     9ee:	81 e0       	ldi	r24, 0x01	; 1
     9f0:	65 e0       	ldi	r22, 0x05	; 5
     9f2:	41 e0       	ldi	r20, 0x01	; 1
     9f4:	0e 94 82 06 	call	0xd04	; 0xd04 <DIO_enumSetPinDir>
     9f8:	81 e0       	ldi	r24, 0x01	; 1
     9fa:	67 e0       	ldi	r22, 0x07	; 7
     9fc:	41 e0       	ldi	r20, 0x01	; 1
     9fe:	0e 94 82 06 	call	0xd04	; 0xd04 <DIO_enumSetPinDir>
     a02:	6b 98       	cbi	0x0d, 3	; 13
     a04:	6a 98       	cbi	0x0d, 2	; 13
     a06:	68 9a       	sbi	0x0d, 0	; 13
     a08:	69 98       	cbi	0x0d, 1	; 13
     a0a:	70 98       	cbi	0x0e, 0	; 14
     a0c:	6f 98       	cbi	0x0d, 7	; 13
     a0e:	6e 9a       	sbi	0x0d, 6	; 13
     a10:	08 95       	ret

00000a12 <GIE_vEnable>:
     a12:	8f b7       	in	r24, 0x3f	; 63
     a14:	80 68       	ori	r24, 0x80	; 128
     a16:	8f bf       	out	0x3f, r24	; 63
     a18:	08 95       	ret

00000a1a <GIE_vDisable>:
     a1a:	8f b7       	in	r24, 0x3f	; 63
     a1c:	8f 77       	andi	r24, 0x7F	; 127
     a1e:	8f bf       	out	0x3f, r24	; 63
     a20:	08 95       	ret

00000a22 <EXTI_vInit>:
     a22:	84 b7       	in	r24, 0x34	; 52
     a24:	80 64       	ori	r24, 0x40	; 64
     a26:	84 bf       	out	0x34, r24	; 52
     a28:	08 95       	ret

00000a2a <EXTI_vSetSignal>:
     a2a:	e8 2f       	mov	r30, r24
     a2c:	76 2f       	mov	r23, r22
     a2e:	86 2f       	mov	r24, r22
     a30:	86 50       	subi	r24, 0x06	; 6
     a32:	82 30       	cpi	r24, 0x02	; 2
     a34:	08 f0       	brcs	.+2      	; 0xa38 <EXTI_vSetSignal+0xe>
     a36:	69 c0       	rjmp	.+210    	; 0xb0a <EXTI_vSetSignal+0xe0>
     a38:	77 0f       	add	r23, r23
     a3a:	7c 50       	subi	r23, 0x0C	; 12
     a3c:	e1 30       	cpi	r30, 0x01	; 1
     a3e:	09 f4       	brne	.+2      	; 0xa42 <EXTI_vSetSignal+0x18>
     a40:	4c c0       	rjmp	.+152    	; 0xada <EXTI_vSetSignal+0xb0>
     a42:	e1 30       	cpi	r30, 0x01	; 1
     a44:	d0 f1       	brcs	.+116    	; 0xaba <EXTI_vSetSignal+0x90>
     a46:	e2 30       	cpi	r30, 0x02	; 2
     a48:	21 f0       	breq	.+8      	; 0xa52 <EXTI_vSetSignal+0x28>
     a4a:	e3 30       	cpi	r30, 0x03	; 3
     a4c:	09 f0       	breq	.+2      	; 0xa50 <EXTI_vSetSignal+0x26>
     a4e:	5d c0       	rjmp	.+186    	; 0xb0a <EXTI_vSetSignal+0xe0>
     a50:	1b c0       	rjmp	.+54     	; 0xa88 <EXTI_vSetSignal+0x5e>
     a52:	65 b7       	in	r22, 0x35	; 53
     a54:	47 2f       	mov	r20, r23
     a56:	50 e0       	ldi	r21, 0x00	; 0
     a58:	21 e0       	ldi	r18, 0x01	; 1
     a5a:	30 e0       	ldi	r19, 0x00	; 0
     a5c:	c9 01       	movw	r24, r18
     a5e:	07 2e       	mov	r0, r23
     a60:	02 c0       	rjmp	.+4      	; 0xa66 <EXTI_vSetSignal+0x3c>
     a62:	88 0f       	add	r24, r24
     a64:	99 1f       	adc	r25, r25
     a66:	0a 94       	dec	r0
     a68:	e2 f7       	brpl	.-8      	; 0xa62 <EXTI_vSetSignal+0x38>
     a6a:	80 95       	com	r24
     a6c:	86 23       	and	r24, r22
     a6e:	85 bf       	out	0x35, r24	; 53
     a70:	85 b7       	in	r24, 0x35	; 53
     a72:	4f 5f       	subi	r20, 0xFF	; 255
     a74:	5f 4f       	sbci	r21, 0xFF	; 255
     a76:	02 c0       	rjmp	.+4      	; 0xa7c <EXTI_vSetSignal+0x52>
     a78:	22 0f       	add	r18, r18
     a7a:	33 1f       	adc	r19, r19
     a7c:	4a 95       	dec	r20
     a7e:	e2 f7       	brpl	.-8      	; 0xa78 <EXTI_vSetSignal+0x4e>
     a80:	20 95       	com	r18
     a82:	28 23       	and	r18, r24
     a84:	25 bf       	out	0x35, r18	; 53
     a86:	41 c0       	rjmp	.+130    	; 0xb0a <EXTI_vSetSignal+0xe0>
     a88:	65 b7       	in	r22, 0x35	; 53
     a8a:	47 2f       	mov	r20, r23
     a8c:	50 e0       	ldi	r21, 0x00	; 0
     a8e:	81 e0       	ldi	r24, 0x01	; 1
     a90:	90 e0       	ldi	r25, 0x00	; 0
     a92:	9c 01       	movw	r18, r24
     a94:	07 2e       	mov	r0, r23
     a96:	02 c0       	rjmp	.+4      	; 0xa9c <EXTI_vSetSignal+0x72>
     a98:	22 0f       	add	r18, r18
     a9a:	33 1f       	adc	r19, r19
     a9c:	0a 94       	dec	r0
     a9e:	e2 f7       	brpl	.-8      	; 0xa98 <EXTI_vSetSignal+0x6e>
     aa0:	62 2b       	or	r22, r18
     aa2:	65 bf       	out	0x35, r22	; 53
     aa4:	25 b7       	in	r18, 0x35	; 53
     aa6:	4f 5f       	subi	r20, 0xFF	; 255
     aa8:	5f 4f       	sbci	r21, 0xFF	; 255
     aaa:	02 c0       	rjmp	.+4      	; 0xab0 <EXTI_vSetSignal+0x86>
     aac:	88 0f       	add	r24, r24
     aae:	99 1f       	adc	r25, r25
     ab0:	4a 95       	dec	r20
     ab2:	e2 f7       	brpl	.-8      	; 0xaac <EXTI_vSetSignal+0x82>
     ab4:	80 95       	com	r24
     ab6:	82 23       	and	r24, r18
     ab8:	27 c0       	rjmp	.+78     	; 0xb08 <EXTI_vSetSignal+0xde>
     aba:	65 b7       	in	r22, 0x35	; 53
     abc:	27 2f       	mov	r18, r23
     abe:	30 e0       	ldi	r19, 0x00	; 0
     ac0:	41 e0       	ldi	r20, 0x01	; 1
     ac2:	50 e0       	ldi	r21, 0x00	; 0
     ac4:	ca 01       	movw	r24, r20
     ac6:	07 2e       	mov	r0, r23
     ac8:	02 c0       	rjmp	.+4      	; 0xace <EXTI_vSetSignal+0xa4>
     aca:	88 0f       	add	r24, r24
     acc:	99 1f       	adc	r25, r25
     ace:	0a 94       	dec	r0
     ad0:	e2 f7       	brpl	.-8      	; 0xaca <EXTI_vSetSignal+0xa0>
     ad2:	80 95       	com	r24
     ad4:	86 23       	and	r24, r22
     ad6:	85 bf       	out	0x35, r24	; 53
     ad8:	0e c0       	rjmp	.+28     	; 0xaf6 <EXTI_vSetSignal+0xcc>
     ada:	65 b7       	in	r22, 0x35	; 53
     adc:	27 2f       	mov	r18, r23
     ade:	30 e0       	ldi	r19, 0x00	; 0
     ae0:	41 e0       	ldi	r20, 0x01	; 1
     ae2:	50 e0       	ldi	r21, 0x00	; 0
     ae4:	ca 01       	movw	r24, r20
     ae6:	07 2e       	mov	r0, r23
     ae8:	02 c0       	rjmp	.+4      	; 0xaee <EXTI_vSetSignal+0xc4>
     aea:	88 0f       	add	r24, r24
     aec:	99 1f       	adc	r25, r25
     aee:	0a 94       	dec	r0
     af0:	e2 f7       	brpl	.-8      	; 0xaea <EXTI_vSetSignal+0xc0>
     af2:	68 2b       	or	r22, r24
     af4:	65 bf       	out	0x35, r22	; 53
     af6:	85 b7       	in	r24, 0x35	; 53
     af8:	2f 5f       	subi	r18, 0xFF	; 255
     afa:	3f 4f       	sbci	r19, 0xFF	; 255
     afc:	02 c0       	rjmp	.+4      	; 0xb02 <EXTI_vSetSignal+0xd8>
     afe:	44 0f       	add	r20, r20
     b00:	55 1f       	adc	r21, r21
     b02:	2a 95       	dec	r18
     b04:	e2 f7       	brpl	.-8      	; 0xafe <EXTI_vSetSignal+0xd4>
     b06:	84 2b       	or	r24, r20
     b08:	85 bf       	out	0x35, r24	; 53
     b0a:	75 30       	cpi	r23, 0x05	; 5
     b0c:	61 f4       	brne	.+24     	; 0xb26 <EXTI_vSetSignal+0xfc>
     b0e:	ee 23       	and	r30, r30
     b10:	19 f0       	breq	.+6      	; 0xb18 <EXTI_vSetSignal+0xee>
     b12:	e1 30       	cpi	r30, 0x01	; 1
     b14:	41 f4       	brne	.+16     	; 0xb26 <EXTI_vSetSignal+0xfc>
     b16:	04 c0       	rjmp	.+8      	; 0xb20 <EXTI_vSetSignal+0xf6>
     b18:	84 b7       	in	r24, 0x34	; 52
     b1a:	8f 7b       	andi	r24, 0xBF	; 191
     b1c:	84 bf       	out	0x34, r24	; 52
     b1e:	08 95       	ret
     b20:	84 b7       	in	r24, 0x34	; 52
     b22:	80 64       	ori	r24, 0x40	; 64
     b24:	84 bf       	out	0x34, r24	; 52
     b26:	08 95       	ret

00000b28 <EXTI_vDisableInterrupt>:
     b28:	38 2f       	mov	r19, r24
     b2a:	85 50       	subi	r24, 0x05	; 5
     b2c:	83 30       	cpi	r24, 0x03	; 3
     b2e:	10 f0       	brcs	.+4      	; 0xb34 <EXTI_vDisableInterrupt+0xc>
     b30:	81 e0       	ldi	r24, 0x01	; 1
     b32:	08 95       	ret
     b34:	2b b7       	in	r18, 0x3b	; 59
     b36:	81 e0       	ldi	r24, 0x01	; 1
     b38:	90 e0       	ldi	r25, 0x00	; 0
     b3a:	02 c0       	rjmp	.+4      	; 0xb40 <EXTI_vDisableInterrupt+0x18>
     b3c:	88 0f       	add	r24, r24
     b3e:	99 1f       	adc	r25, r25
     b40:	3a 95       	dec	r19
     b42:	e2 f7       	brpl	.-8      	; 0xb3c <EXTI_vDisableInterrupt+0x14>
     b44:	80 95       	com	r24
     b46:	82 23       	and	r24, r18
     b48:	8b bf       	out	0x3b, r24	; 59
     b4a:	80 e0       	ldi	r24, 0x00	; 0
     b4c:	08 95       	ret

00000b4e <EXTI_vEnableInterrupt>:
     b4e:	38 2f       	mov	r19, r24
     b50:	85 50       	subi	r24, 0x05	; 5
     b52:	83 30       	cpi	r24, 0x03	; 3
     b54:	10 f0       	brcs	.+4      	; 0xb5a <EXTI_vEnableInterrupt+0xc>
     b56:	81 e0       	ldi	r24, 0x01	; 1
     b58:	08 95       	ret
     b5a:	2b b7       	in	r18, 0x3b	; 59
     b5c:	81 e0       	ldi	r24, 0x01	; 1
     b5e:	90 e0       	ldi	r25, 0x00	; 0
     b60:	02 c0       	rjmp	.+4      	; 0xb66 <EXTI_vEnableInterrupt+0x18>
     b62:	88 0f       	add	r24, r24
     b64:	99 1f       	adc	r25, r25
     b66:	3a 95       	dec	r19
     b68:	e2 f7       	brpl	.-8      	; 0xb62 <EXTI_vEnableInterrupt+0x14>
     b6a:	28 2b       	or	r18, r24
     b6c:	2b bf       	out	0x3b, r18	; 59
     b6e:	80 e0       	ldi	r24, 0x00	; 0
     b70:	08 95       	ret

00000b72 <EXTI_vClearFlag>:
     b72:	9a b7       	in	r25, 0x3a	; 58
     b74:	21 e0       	ldi	r18, 0x01	; 1
     b76:	30 e0       	ldi	r19, 0x00	; 0
     b78:	02 c0       	rjmp	.+4      	; 0xb7e <EXTI_vClearFlag+0xc>
     b7a:	22 0f       	add	r18, r18
     b7c:	33 1f       	adc	r19, r19
     b7e:	8a 95       	dec	r24
     b80:	e2 f7       	brpl	.-8      	; 0xb7a <EXTI_vClearFlag+0x8>
     b82:	92 2b       	or	r25, r18
     b84:	9a bf       	out	0x3a, r25	; 58
     b86:	08 95       	ret

00000b88 <EXTI_u8GETFlag>:
     b88:	4a b7       	in	r20, 0x3a	; 58
     b8a:	21 e0       	ldi	r18, 0x01	; 1
     b8c:	30 e0       	ldi	r19, 0x00	; 0
     b8e:	08 2e       	mov	r0, r24
     b90:	02 c0       	rjmp	.+4      	; 0xb96 <EXTI_u8GETFlag+0xe>
     b92:	22 0f       	add	r18, r18
     b94:	33 1f       	adc	r19, r19
     b96:	0a 94       	dec	r0
     b98:	e2 f7       	brpl	.-8      	; 0xb92 <EXTI_u8GETFlag+0xa>
     b9a:	50 e0       	ldi	r21, 0x00	; 0
     b9c:	24 23       	and	r18, r20
     b9e:	35 23       	and	r19, r21
     ba0:	02 c0       	rjmp	.+4      	; 0xba6 <EXTI_u8GETFlag+0x1e>
     ba2:	35 95       	asr	r19
     ba4:	27 95       	ror	r18
     ba6:	8a 95       	dec	r24
     ba8:	e2 f7       	brpl	.-8      	; 0xba2 <EXTI_u8GETFlag+0x1a>
     baa:	82 2f       	mov	r24, r18
     bac:	08 95       	ret

00000bae <EXTI_vSetCallBack>:
     bae:	00 97       	sbiw	r24, 0x00	; 0
     bb0:	b1 f0       	breq	.+44     	; 0xbde <EXTI_vSetCallBack+0x30>
     bb2:	66 30       	cpi	r22, 0x06	; 6
     bb4:	29 f4       	brne	.+10     	; 0xbc0 <EXTI_vSetCallBack+0x12>
     bb6:	90 93 03 06 	sts	0x0603, r25
     bba:	80 93 02 06 	sts	0x0602, r24
     bbe:	0d c0       	rjmp	.+26     	; 0xbda <EXTI_vSetCallBack+0x2c>
     bc0:	67 30       	cpi	r22, 0x07	; 7
     bc2:	29 f4       	brne	.+10     	; 0xbce <EXTI_vSetCallBack+0x20>
     bc4:	90 93 05 06 	sts	0x0605, r25
     bc8:	80 93 04 06 	sts	0x0604, r24
     bcc:	06 c0       	rjmp	.+12     	; 0xbda <EXTI_vSetCallBack+0x2c>
     bce:	65 30       	cpi	r22, 0x05	; 5
     bd0:	31 f4       	brne	.+12     	; 0xbde <EXTI_vSetCallBack+0x30>
     bd2:	90 93 07 06 	sts	0x0607, r25
     bd6:	80 93 06 06 	sts	0x0606, r24
     bda:	80 e0       	ldi	r24, 0x00	; 0
     bdc:	08 95       	ret
     bde:	81 e0       	ldi	r24, 0x01	; 1
     be0:	08 95       	ret

00000be2 <__vector_1>:
     be2:	1f 92       	push	r1
     be4:	0f 92       	push	r0
     be6:	0f b6       	in	r0, 0x3f	; 63
     be8:	0f 92       	push	r0
     bea:	11 24       	eor	r1, r1
     bec:	2f 93       	push	r18
     bee:	3f 93       	push	r19
     bf0:	4f 93       	push	r20
     bf2:	5f 93       	push	r21
     bf4:	6f 93       	push	r22
     bf6:	7f 93       	push	r23
     bf8:	8f 93       	push	r24
     bfa:	9f 93       	push	r25
     bfc:	af 93       	push	r26
     bfe:	bf 93       	push	r27
     c00:	ef 93       	push	r30
     c02:	ff 93       	push	r31
     c04:	e0 91 02 06 	lds	r30, 0x0602
     c08:	f0 91 03 06 	lds	r31, 0x0603
     c0c:	30 97       	sbiw	r30, 0x00	; 0
     c0e:	21 f0       	breq	.+8      	; 0xc18 <__vector_1+0x36>
     c10:	09 95       	icall
     c12:	8a b7       	in	r24, 0x3a	; 58
     c14:	80 64       	ori	r24, 0x40	; 64
     c16:	8a bf       	out	0x3a, r24	; 58
     c18:	ff 91       	pop	r31
     c1a:	ef 91       	pop	r30
     c1c:	bf 91       	pop	r27
     c1e:	af 91       	pop	r26
     c20:	9f 91       	pop	r25
     c22:	8f 91       	pop	r24
     c24:	7f 91       	pop	r23
     c26:	6f 91       	pop	r22
     c28:	5f 91       	pop	r21
     c2a:	4f 91       	pop	r20
     c2c:	3f 91       	pop	r19
     c2e:	2f 91       	pop	r18
     c30:	0f 90       	pop	r0
     c32:	0f be       	out	0x3f, r0	; 63
     c34:	0f 90       	pop	r0
     c36:	1f 90       	pop	r1
     c38:	18 95       	reti

00000c3a <__vector_2>:
     c3a:	1f 92       	push	r1
     c3c:	0f 92       	push	r0
     c3e:	0f b6       	in	r0, 0x3f	; 63
     c40:	0f 92       	push	r0
     c42:	11 24       	eor	r1, r1
     c44:	2f 93       	push	r18
     c46:	3f 93       	push	r19
     c48:	4f 93       	push	r20
     c4a:	5f 93       	push	r21
     c4c:	6f 93       	push	r22
     c4e:	7f 93       	push	r23
     c50:	8f 93       	push	r24
     c52:	9f 93       	push	r25
     c54:	af 93       	push	r26
     c56:	bf 93       	push	r27
     c58:	ef 93       	push	r30
     c5a:	ff 93       	push	r31
     c5c:	e0 91 04 06 	lds	r30, 0x0604
     c60:	f0 91 05 06 	lds	r31, 0x0605
     c64:	30 97       	sbiw	r30, 0x00	; 0
     c66:	21 f0       	breq	.+8      	; 0xc70 <__vector_2+0x36>
     c68:	09 95       	icall
     c6a:	8a b7       	in	r24, 0x3a	; 58
     c6c:	80 68       	ori	r24, 0x80	; 128
     c6e:	8a bf       	out	0x3a, r24	; 58
     c70:	ff 91       	pop	r31
     c72:	ef 91       	pop	r30
     c74:	bf 91       	pop	r27
     c76:	af 91       	pop	r26
     c78:	9f 91       	pop	r25
     c7a:	8f 91       	pop	r24
     c7c:	7f 91       	pop	r23
     c7e:	6f 91       	pop	r22
     c80:	5f 91       	pop	r21
     c82:	4f 91       	pop	r20
     c84:	3f 91       	pop	r19
     c86:	2f 91       	pop	r18
     c88:	0f 90       	pop	r0
     c8a:	0f be       	out	0x3f, r0	; 63
     c8c:	0f 90       	pop	r0
     c8e:	1f 90       	pop	r1
     c90:	18 95       	reti

00000c92 <__vector_3>:
     c92:	1f 92       	push	r1
     c94:	0f 92       	push	r0
     c96:	0f b6       	in	r0, 0x3f	; 63
     c98:	0f 92       	push	r0
     c9a:	11 24       	eor	r1, r1
     c9c:	2f 93       	push	r18
     c9e:	3f 93       	push	r19
     ca0:	4f 93       	push	r20
     ca2:	5f 93       	push	r21
     ca4:	6f 93       	push	r22
     ca6:	7f 93       	push	r23
     ca8:	8f 93       	push	r24
     caa:	9f 93       	push	r25
     cac:	af 93       	push	r26
     cae:	bf 93       	push	r27
     cb0:	ef 93       	push	r30
     cb2:	ff 93       	push	r31
     cb4:	e0 91 06 06 	lds	r30, 0x0606
     cb8:	f0 91 07 06 	lds	r31, 0x0607
     cbc:	30 97       	sbiw	r30, 0x00	; 0
     cbe:	21 f0       	breq	.+8      	; 0xcc8 <__vector_3+0x36>
     cc0:	09 95       	icall
     cc2:	8a b7       	in	r24, 0x3a	; 58
     cc4:	80 62       	ori	r24, 0x20	; 32
     cc6:	8a bf       	out	0x3a, r24	; 58
     cc8:	ff 91       	pop	r31
     cca:	ef 91       	pop	r30
     ccc:	bf 91       	pop	r27
     cce:	af 91       	pop	r26
     cd0:	9f 91       	pop	r25
     cd2:	8f 91       	pop	r24
     cd4:	7f 91       	pop	r23
     cd6:	6f 91       	pop	r22
     cd8:	5f 91       	pop	r21
     cda:	4f 91       	pop	r20
     cdc:	3f 91       	pop	r19
     cde:	2f 91       	pop	r18
     ce0:	0f 90       	pop	r0
     ce2:	0f be       	out	0x3f, r0	; 63
     ce4:	0f 90       	pop	r0
     ce6:	1f 90       	pop	r1
     ce8:	18 95       	reti

00000cea <EEPROM_vWrite>:
     cea:	9f bb       	out	0x1f, r25	; 31
     cec:	8e bb       	out	0x1e, r24	; 30
     cee:	6d bb       	out	0x1d, r22	; 29
     cf0:	e2 9a       	sbi	0x1c, 2	; 28
     cf2:	e1 9a       	sbi	0x1c, 1	; 28
     cf4:	e1 99       	sbic	0x1c, 1	; 28
     cf6:	fe cf       	rjmp	.-4      	; 0xcf4 <EEPROM_vWrite+0xa>
     cf8:	08 95       	ret

00000cfa <EEPROM_vRead>:
     cfa:	8e bb       	out	0x1e, r24	; 30
     cfc:	9f bb       	out	0x1f, r25	; 31
     cfe:	e0 9a       	sbi	0x1c, 0	; 28
     d00:	8d b3       	in	r24, 0x1d	; 29
     d02:	08 95       	ret

00000d04 <DIO_enumSetPinDir>:
     d04:	84 30       	cpi	r24, 0x04	; 4
     d06:	08 f0       	brcs	.+2      	; 0xd0a <DIO_enumSetPinDir+0x6>
     d08:	77 c0       	rjmp	.+238    	; 0xdf8 <DIO_enumSetPinDir+0xf4>
     d0a:	68 30       	cpi	r22, 0x08	; 8
     d0c:	08 f0       	brcs	.+2      	; 0xd10 <DIO_enumSetPinDir+0xc>
     d0e:	74 c0       	rjmp	.+232    	; 0xdf8 <DIO_enumSetPinDir+0xf4>
     d10:	41 30       	cpi	r20, 0x01	; 1
     d12:	b1 f5       	brne	.+108    	; 0xd80 <DIO_enumSetPinDir+0x7c>
     d14:	81 30       	cpi	r24, 0x01	; 1
     d16:	99 f0       	breq	.+38     	; 0xd3e <DIO_enumSetPinDir+0x3a>
     d18:	81 30       	cpi	r24, 0x01	; 1
     d1a:	30 f0       	brcs	.+12     	; 0xd28 <DIO_enumSetPinDir+0x24>
     d1c:	82 30       	cpi	r24, 0x02	; 2
     d1e:	d1 f0       	breq	.+52     	; 0xd54 <DIO_enumSetPinDir+0x50>
     d20:	83 30       	cpi	r24, 0x03	; 3
     d22:	09 f0       	breq	.+2      	; 0xd26 <DIO_enumSetPinDir+0x22>
     d24:	6b c0       	rjmp	.+214    	; 0xdfc <DIO_enumSetPinDir+0xf8>
     d26:	21 c0       	rjmp	.+66     	; 0xd6a <DIO_enumSetPinDir+0x66>
     d28:	2a b3       	in	r18, 0x1a	; 26
     d2a:	81 e0       	ldi	r24, 0x01	; 1
     d2c:	90 e0       	ldi	r25, 0x00	; 0
     d2e:	02 c0       	rjmp	.+4      	; 0xd34 <DIO_enumSetPinDir+0x30>
     d30:	88 0f       	add	r24, r24
     d32:	99 1f       	adc	r25, r25
     d34:	6a 95       	dec	r22
     d36:	e2 f7       	brpl	.-8      	; 0xd30 <DIO_enumSetPinDir+0x2c>
     d38:	28 2b       	or	r18, r24
     d3a:	2a bb       	out	0x1a, r18	; 26
     d3c:	5b c0       	rjmp	.+182    	; 0xdf4 <DIO_enumSetPinDir+0xf0>
     d3e:	27 b3       	in	r18, 0x17	; 23
     d40:	81 e0       	ldi	r24, 0x01	; 1
     d42:	90 e0       	ldi	r25, 0x00	; 0
     d44:	02 c0       	rjmp	.+4      	; 0xd4a <DIO_enumSetPinDir+0x46>
     d46:	88 0f       	add	r24, r24
     d48:	99 1f       	adc	r25, r25
     d4a:	6a 95       	dec	r22
     d4c:	e2 f7       	brpl	.-8      	; 0xd46 <DIO_enumSetPinDir+0x42>
     d4e:	28 2b       	or	r18, r24
     d50:	27 bb       	out	0x17, r18	; 23
     d52:	50 c0       	rjmp	.+160    	; 0xdf4 <DIO_enumSetPinDir+0xf0>
     d54:	24 b3       	in	r18, 0x14	; 20
     d56:	81 e0       	ldi	r24, 0x01	; 1
     d58:	90 e0       	ldi	r25, 0x00	; 0
     d5a:	02 c0       	rjmp	.+4      	; 0xd60 <DIO_enumSetPinDir+0x5c>
     d5c:	88 0f       	add	r24, r24
     d5e:	99 1f       	adc	r25, r25
     d60:	6a 95       	dec	r22
     d62:	e2 f7       	brpl	.-8      	; 0xd5c <DIO_enumSetPinDir+0x58>
     d64:	28 2b       	or	r18, r24
     d66:	24 bb       	out	0x14, r18	; 20
     d68:	45 c0       	rjmp	.+138    	; 0xdf4 <DIO_enumSetPinDir+0xf0>
     d6a:	21 b3       	in	r18, 0x11	; 17
     d6c:	81 e0       	ldi	r24, 0x01	; 1
     d6e:	90 e0       	ldi	r25, 0x00	; 0
     d70:	02 c0       	rjmp	.+4      	; 0xd76 <DIO_enumSetPinDir+0x72>
     d72:	88 0f       	add	r24, r24
     d74:	99 1f       	adc	r25, r25
     d76:	6a 95       	dec	r22
     d78:	e2 f7       	brpl	.-8      	; 0xd72 <DIO_enumSetPinDir+0x6e>
     d7a:	28 2b       	or	r18, r24
     d7c:	21 bb       	out	0x11, r18	; 17
     d7e:	3a c0       	rjmp	.+116    	; 0xdf4 <DIO_enumSetPinDir+0xf0>
     d80:	44 23       	and	r20, r20
     d82:	d1 f5       	brne	.+116    	; 0xdf8 <DIO_enumSetPinDir+0xf4>
     d84:	81 30       	cpi	r24, 0x01	; 1
     d86:	99 f0       	breq	.+38     	; 0xdae <DIO_enumSetPinDir+0xaa>
     d88:	81 30       	cpi	r24, 0x01	; 1
     d8a:	28 f0       	brcs	.+10     	; 0xd96 <DIO_enumSetPinDir+0x92>
     d8c:	82 30       	cpi	r24, 0x02	; 2
     d8e:	d9 f0       	breq	.+54     	; 0xdc6 <DIO_enumSetPinDir+0xc2>
     d90:	83 30       	cpi	r24, 0x03	; 3
     d92:	a1 f5       	brne	.+104    	; 0xdfc <DIO_enumSetPinDir+0xf8>
     d94:	24 c0       	rjmp	.+72     	; 0xdde <DIO_enumSetPinDir+0xda>
     d96:	2a b3       	in	r18, 0x1a	; 26
     d98:	81 e0       	ldi	r24, 0x01	; 1
     d9a:	90 e0       	ldi	r25, 0x00	; 0
     d9c:	02 c0       	rjmp	.+4      	; 0xda2 <DIO_enumSetPinDir+0x9e>
     d9e:	88 0f       	add	r24, r24
     da0:	99 1f       	adc	r25, r25
     da2:	6a 95       	dec	r22
     da4:	e2 f7       	brpl	.-8      	; 0xd9e <DIO_enumSetPinDir+0x9a>
     da6:	80 95       	com	r24
     da8:	82 23       	and	r24, r18
     daa:	8a bb       	out	0x1a, r24	; 26
     dac:	23 c0       	rjmp	.+70     	; 0xdf4 <DIO_enumSetPinDir+0xf0>
     dae:	27 b3       	in	r18, 0x17	; 23
     db0:	81 e0       	ldi	r24, 0x01	; 1
     db2:	90 e0       	ldi	r25, 0x00	; 0
     db4:	02 c0       	rjmp	.+4      	; 0xdba <DIO_enumSetPinDir+0xb6>
     db6:	88 0f       	add	r24, r24
     db8:	99 1f       	adc	r25, r25
     dba:	6a 95       	dec	r22
     dbc:	e2 f7       	brpl	.-8      	; 0xdb6 <DIO_enumSetPinDir+0xb2>
     dbe:	80 95       	com	r24
     dc0:	82 23       	and	r24, r18
     dc2:	87 bb       	out	0x17, r24	; 23
     dc4:	17 c0       	rjmp	.+46     	; 0xdf4 <DIO_enumSetPinDir+0xf0>
     dc6:	24 b3       	in	r18, 0x14	; 20
     dc8:	81 e0       	ldi	r24, 0x01	; 1
     dca:	90 e0       	ldi	r25, 0x00	; 0
     dcc:	02 c0       	rjmp	.+4      	; 0xdd2 <DIO_enumSetPinDir+0xce>
     dce:	88 0f       	add	r24, r24
     dd0:	99 1f       	adc	r25, r25
     dd2:	6a 95       	dec	r22
     dd4:	e2 f7       	brpl	.-8      	; 0xdce <DIO_enumSetPinDir+0xca>
     dd6:	80 95       	com	r24
     dd8:	82 23       	and	r24, r18
     dda:	84 bb       	out	0x14, r24	; 20
     ddc:	0b c0       	rjmp	.+22     	; 0xdf4 <DIO_enumSetPinDir+0xf0>
     dde:	21 b3       	in	r18, 0x11	; 17
     de0:	81 e0       	ldi	r24, 0x01	; 1
     de2:	90 e0       	ldi	r25, 0x00	; 0
     de4:	02 c0       	rjmp	.+4      	; 0xdea <DIO_enumSetPinDir+0xe6>
     de6:	88 0f       	add	r24, r24
     de8:	99 1f       	adc	r25, r25
     dea:	6a 95       	dec	r22
     dec:	e2 f7       	brpl	.-8      	; 0xde6 <DIO_enumSetPinDir+0xe2>
     dee:	80 95       	com	r24
     df0:	82 23       	and	r24, r18
     df2:	81 bb       	out	0x11, r24	; 17
     df4:	81 e0       	ldi	r24, 0x01	; 1
     df6:	08 95       	ret
     df8:	80 e0       	ldi	r24, 0x00	; 0
     dfa:	08 95       	ret
     dfc:	81 e0       	ldi	r24, 0x01	; 1
     dfe:	08 95       	ret

00000e00 <DIO_enumWritePinVal>:
     e00:	84 30       	cpi	r24, 0x04	; 4
     e02:	08 f0       	brcs	.+2      	; 0xe06 <DIO_enumWritePinVal+0x6>
     e04:	77 c0       	rjmp	.+238    	; 0xef4 <DIO_enumWritePinVal+0xf4>
     e06:	68 30       	cpi	r22, 0x08	; 8
     e08:	08 f0       	brcs	.+2      	; 0xe0c <DIO_enumWritePinVal+0xc>
     e0a:	74 c0       	rjmp	.+232    	; 0xef4 <DIO_enumWritePinVal+0xf4>
     e0c:	41 30       	cpi	r20, 0x01	; 1
     e0e:	b1 f5       	brne	.+108    	; 0xe7c <DIO_enumWritePinVal+0x7c>
     e10:	81 30       	cpi	r24, 0x01	; 1
     e12:	99 f0       	breq	.+38     	; 0xe3a <DIO_enumWritePinVal+0x3a>
     e14:	81 30       	cpi	r24, 0x01	; 1
     e16:	30 f0       	brcs	.+12     	; 0xe24 <DIO_enumWritePinVal+0x24>
     e18:	82 30       	cpi	r24, 0x02	; 2
     e1a:	d1 f0       	breq	.+52     	; 0xe50 <DIO_enumWritePinVal+0x50>
     e1c:	83 30       	cpi	r24, 0x03	; 3
     e1e:	09 f0       	breq	.+2      	; 0xe22 <DIO_enumWritePinVal+0x22>
     e20:	6b c0       	rjmp	.+214    	; 0xef8 <DIO_enumWritePinVal+0xf8>
     e22:	21 c0       	rjmp	.+66     	; 0xe66 <DIO_enumWritePinVal+0x66>
     e24:	2b b3       	in	r18, 0x1b	; 27
     e26:	81 e0       	ldi	r24, 0x01	; 1
     e28:	90 e0       	ldi	r25, 0x00	; 0
     e2a:	02 c0       	rjmp	.+4      	; 0xe30 <DIO_enumWritePinVal+0x30>
     e2c:	88 0f       	add	r24, r24
     e2e:	99 1f       	adc	r25, r25
     e30:	6a 95       	dec	r22
     e32:	e2 f7       	brpl	.-8      	; 0xe2c <DIO_enumWritePinVal+0x2c>
     e34:	28 2b       	or	r18, r24
     e36:	2b bb       	out	0x1b, r18	; 27
     e38:	5b c0       	rjmp	.+182    	; 0xef0 <DIO_enumWritePinVal+0xf0>
     e3a:	28 b3       	in	r18, 0x18	; 24
     e3c:	81 e0       	ldi	r24, 0x01	; 1
     e3e:	90 e0       	ldi	r25, 0x00	; 0
     e40:	02 c0       	rjmp	.+4      	; 0xe46 <DIO_enumWritePinVal+0x46>
     e42:	88 0f       	add	r24, r24
     e44:	99 1f       	adc	r25, r25
     e46:	6a 95       	dec	r22
     e48:	e2 f7       	brpl	.-8      	; 0xe42 <DIO_enumWritePinVal+0x42>
     e4a:	28 2b       	or	r18, r24
     e4c:	28 bb       	out	0x18, r18	; 24
     e4e:	50 c0       	rjmp	.+160    	; 0xef0 <DIO_enumWritePinVal+0xf0>
     e50:	25 b3       	in	r18, 0x15	; 21
     e52:	81 e0       	ldi	r24, 0x01	; 1
     e54:	90 e0       	ldi	r25, 0x00	; 0
     e56:	02 c0       	rjmp	.+4      	; 0xe5c <DIO_enumWritePinVal+0x5c>
     e58:	88 0f       	add	r24, r24
     e5a:	99 1f       	adc	r25, r25
     e5c:	6a 95       	dec	r22
     e5e:	e2 f7       	brpl	.-8      	; 0xe58 <DIO_enumWritePinVal+0x58>
     e60:	28 2b       	or	r18, r24
     e62:	25 bb       	out	0x15, r18	; 21
     e64:	45 c0       	rjmp	.+138    	; 0xef0 <DIO_enumWritePinVal+0xf0>
     e66:	22 b3       	in	r18, 0x12	; 18
     e68:	81 e0       	ldi	r24, 0x01	; 1
     e6a:	90 e0       	ldi	r25, 0x00	; 0
     e6c:	02 c0       	rjmp	.+4      	; 0xe72 <DIO_enumWritePinVal+0x72>
     e6e:	88 0f       	add	r24, r24
     e70:	99 1f       	adc	r25, r25
     e72:	6a 95       	dec	r22
     e74:	e2 f7       	brpl	.-8      	; 0xe6e <DIO_enumWritePinVal+0x6e>
     e76:	28 2b       	or	r18, r24
     e78:	22 bb       	out	0x12, r18	; 18
     e7a:	3a c0       	rjmp	.+116    	; 0xef0 <DIO_enumWritePinVal+0xf0>
     e7c:	44 23       	and	r20, r20
     e7e:	d1 f5       	brne	.+116    	; 0xef4 <DIO_enumWritePinVal+0xf4>
     e80:	81 30       	cpi	r24, 0x01	; 1
     e82:	99 f0       	breq	.+38     	; 0xeaa <DIO_enumWritePinVal+0xaa>
     e84:	81 30       	cpi	r24, 0x01	; 1
     e86:	28 f0       	brcs	.+10     	; 0xe92 <DIO_enumWritePinVal+0x92>
     e88:	82 30       	cpi	r24, 0x02	; 2
     e8a:	d9 f0       	breq	.+54     	; 0xec2 <DIO_enumWritePinVal+0xc2>
     e8c:	83 30       	cpi	r24, 0x03	; 3
     e8e:	a1 f5       	brne	.+104    	; 0xef8 <DIO_enumWritePinVal+0xf8>
     e90:	24 c0       	rjmp	.+72     	; 0xeda <DIO_enumWritePinVal+0xda>
     e92:	2b b3       	in	r18, 0x1b	; 27
     e94:	81 e0       	ldi	r24, 0x01	; 1
     e96:	90 e0       	ldi	r25, 0x00	; 0
     e98:	02 c0       	rjmp	.+4      	; 0xe9e <DIO_enumWritePinVal+0x9e>
     e9a:	88 0f       	add	r24, r24
     e9c:	99 1f       	adc	r25, r25
     e9e:	6a 95       	dec	r22
     ea0:	e2 f7       	brpl	.-8      	; 0xe9a <DIO_enumWritePinVal+0x9a>
     ea2:	80 95       	com	r24
     ea4:	82 23       	and	r24, r18
     ea6:	8b bb       	out	0x1b, r24	; 27
     ea8:	23 c0       	rjmp	.+70     	; 0xef0 <DIO_enumWritePinVal+0xf0>
     eaa:	28 b3       	in	r18, 0x18	; 24
     eac:	81 e0       	ldi	r24, 0x01	; 1
     eae:	90 e0       	ldi	r25, 0x00	; 0
     eb0:	02 c0       	rjmp	.+4      	; 0xeb6 <DIO_enumWritePinVal+0xb6>
     eb2:	88 0f       	add	r24, r24
     eb4:	99 1f       	adc	r25, r25
     eb6:	6a 95       	dec	r22
     eb8:	e2 f7       	brpl	.-8      	; 0xeb2 <DIO_enumWritePinVal+0xb2>
     eba:	80 95       	com	r24
     ebc:	82 23       	and	r24, r18
     ebe:	88 bb       	out	0x18, r24	; 24
     ec0:	17 c0       	rjmp	.+46     	; 0xef0 <DIO_enumWritePinVal+0xf0>
     ec2:	25 b3       	in	r18, 0x15	; 21
     ec4:	81 e0       	ldi	r24, 0x01	; 1
     ec6:	90 e0       	ldi	r25, 0x00	; 0
     ec8:	02 c0       	rjmp	.+4      	; 0xece <DIO_enumWritePinVal+0xce>
     eca:	88 0f       	add	r24, r24
     ecc:	99 1f       	adc	r25, r25
     ece:	6a 95       	dec	r22
     ed0:	e2 f7       	brpl	.-8      	; 0xeca <DIO_enumWritePinVal+0xca>
     ed2:	80 95       	com	r24
     ed4:	82 23       	and	r24, r18
     ed6:	85 bb       	out	0x15, r24	; 21
     ed8:	0b c0       	rjmp	.+22     	; 0xef0 <DIO_enumWritePinVal+0xf0>
     eda:	22 b3       	in	r18, 0x12	; 18
     edc:	81 e0       	ldi	r24, 0x01	; 1
     ede:	90 e0       	ldi	r25, 0x00	; 0
     ee0:	02 c0       	rjmp	.+4      	; 0xee6 <DIO_enumWritePinVal+0xe6>
     ee2:	88 0f       	add	r24, r24
     ee4:	99 1f       	adc	r25, r25
     ee6:	6a 95       	dec	r22
     ee8:	e2 f7       	brpl	.-8      	; 0xee2 <DIO_enumWritePinVal+0xe2>
     eea:	80 95       	com	r24
     eec:	82 23       	and	r24, r18
     eee:	82 bb       	out	0x12, r24	; 18
     ef0:	81 e0       	ldi	r24, 0x01	; 1
     ef2:	08 95       	ret
     ef4:	80 e0       	ldi	r24, 0x00	; 0
     ef6:	08 95       	ret
     ef8:	81 e0       	ldi	r24, 0x01	; 1
     efa:	08 95       	ret

00000efc <DIO_enumReadPinVal>:
     efc:	fa 01       	movw	r30, r20
     efe:	84 30       	cpi	r24, 0x04	; 4
     f00:	28 f5       	brcc	.+74     	; 0xf4c <DIO_enumReadPinVal+0x50>
     f02:	68 30       	cpi	r22, 0x08	; 8
     f04:	18 f5       	brcc	.+70     	; 0xf4c <DIO_enumReadPinVal+0x50>
     f06:	81 30       	cpi	r24, 0x01	; 1
     f08:	49 f0       	breq	.+18     	; 0xf1c <DIO_enumReadPinVal+0x20>
     f0a:	81 30       	cpi	r24, 0x01	; 1
     f0c:	28 f0       	brcs	.+10     	; 0xf18 <DIO_enumReadPinVal+0x1c>
     f0e:	82 30       	cpi	r24, 0x02	; 2
     f10:	39 f0       	breq	.+14     	; 0xf20 <DIO_enumReadPinVal+0x24>
     f12:	83 30       	cpi	r24, 0x03	; 3
     f14:	c9 f4       	brne	.+50     	; 0xf48 <DIO_enumReadPinVal+0x4c>
     f16:	06 c0       	rjmp	.+12     	; 0xf24 <DIO_enumReadPinVal+0x28>
     f18:	29 b3       	in	r18, 0x19	; 25
     f1a:	05 c0       	rjmp	.+10     	; 0xf26 <DIO_enumReadPinVal+0x2a>
     f1c:	26 b3       	in	r18, 0x16	; 22
     f1e:	03 c0       	rjmp	.+6      	; 0xf26 <DIO_enumReadPinVal+0x2a>
     f20:	23 b3       	in	r18, 0x13	; 19
     f22:	01 c0       	rjmp	.+2      	; 0xf26 <DIO_enumReadPinVal+0x2a>
     f24:	20 b3       	in	r18, 0x10	; 16
     f26:	81 e0       	ldi	r24, 0x01	; 1
     f28:	90 e0       	ldi	r25, 0x00	; 0
     f2a:	06 2e       	mov	r0, r22
     f2c:	02 c0       	rjmp	.+4      	; 0xf32 <DIO_enumReadPinVal+0x36>
     f2e:	88 0f       	add	r24, r24
     f30:	99 1f       	adc	r25, r25
     f32:	0a 94       	dec	r0
     f34:	e2 f7       	brpl	.-8      	; 0xf2e <DIO_enumReadPinVal+0x32>
     f36:	30 e0       	ldi	r19, 0x00	; 0
     f38:	82 23       	and	r24, r18
     f3a:	93 23       	and	r25, r19
     f3c:	02 c0       	rjmp	.+4      	; 0xf42 <DIO_enumReadPinVal+0x46>
     f3e:	95 95       	asr	r25
     f40:	87 95       	ror	r24
     f42:	6a 95       	dec	r22
     f44:	e2 f7       	brpl	.-8      	; 0xf3e <DIO_enumReadPinVal+0x42>
     f46:	80 83       	st	Z, r24
     f48:	81 e0       	ldi	r24, 0x01	; 1
     f4a:	08 95       	ret
     f4c:	80 e0       	ldi	r24, 0x00	; 0
     f4e:	08 95       	ret

00000f50 <DIO_enumTogglePinVal>:
     f50:	84 30       	cpi	r24, 0x04	; 4
     f52:	c0 f5       	brcc	.+112    	; 0xfc4 <DIO_enumTogglePinVal+0x74>
     f54:	68 30       	cpi	r22, 0x08	; 8
     f56:	b0 f5       	brcc	.+108    	; 0xfc4 <DIO_enumTogglePinVal+0x74>
     f58:	81 30       	cpi	r24, 0x01	; 1
     f5a:	91 f0       	breq	.+36     	; 0xf80 <DIO_enumTogglePinVal+0x30>
     f5c:	81 30       	cpi	r24, 0x01	; 1
     f5e:	28 f0       	brcs	.+10     	; 0xf6a <DIO_enumTogglePinVal+0x1a>
     f60:	82 30       	cpi	r24, 0x02	; 2
     f62:	c9 f0       	breq	.+50     	; 0xf96 <DIO_enumTogglePinVal+0x46>
     f64:	83 30       	cpi	r24, 0x03	; 3
     f66:	61 f5       	brne	.+88     	; 0xfc0 <DIO_enumTogglePinVal+0x70>
     f68:	21 c0       	rjmp	.+66     	; 0xfac <DIO_enumTogglePinVal+0x5c>
     f6a:	2b b3       	in	r18, 0x1b	; 27
     f6c:	81 e0       	ldi	r24, 0x01	; 1
     f6e:	90 e0       	ldi	r25, 0x00	; 0
     f70:	02 c0       	rjmp	.+4      	; 0xf76 <DIO_enumTogglePinVal+0x26>
     f72:	88 0f       	add	r24, r24
     f74:	99 1f       	adc	r25, r25
     f76:	6a 95       	dec	r22
     f78:	e2 f7       	brpl	.-8      	; 0xf72 <DIO_enumTogglePinVal+0x22>
     f7a:	28 27       	eor	r18, r24
     f7c:	2b bb       	out	0x1b, r18	; 27
     f7e:	20 c0       	rjmp	.+64     	; 0xfc0 <DIO_enumTogglePinVal+0x70>
     f80:	28 b3       	in	r18, 0x18	; 24
     f82:	81 e0       	ldi	r24, 0x01	; 1
     f84:	90 e0       	ldi	r25, 0x00	; 0
     f86:	02 c0       	rjmp	.+4      	; 0xf8c <DIO_enumTogglePinVal+0x3c>
     f88:	88 0f       	add	r24, r24
     f8a:	99 1f       	adc	r25, r25
     f8c:	6a 95       	dec	r22
     f8e:	e2 f7       	brpl	.-8      	; 0xf88 <DIO_enumTogglePinVal+0x38>
     f90:	28 27       	eor	r18, r24
     f92:	28 bb       	out	0x18, r18	; 24
     f94:	15 c0       	rjmp	.+42     	; 0xfc0 <DIO_enumTogglePinVal+0x70>
     f96:	25 b3       	in	r18, 0x15	; 21
     f98:	81 e0       	ldi	r24, 0x01	; 1
     f9a:	90 e0       	ldi	r25, 0x00	; 0
     f9c:	02 c0       	rjmp	.+4      	; 0xfa2 <DIO_enumTogglePinVal+0x52>
     f9e:	88 0f       	add	r24, r24
     fa0:	99 1f       	adc	r25, r25
     fa2:	6a 95       	dec	r22
     fa4:	e2 f7       	brpl	.-8      	; 0xf9e <DIO_enumTogglePinVal+0x4e>
     fa6:	28 27       	eor	r18, r24
     fa8:	25 bb       	out	0x15, r18	; 21
     faa:	0a c0       	rjmp	.+20     	; 0xfc0 <DIO_enumTogglePinVal+0x70>
     fac:	22 b3       	in	r18, 0x12	; 18
     fae:	81 e0       	ldi	r24, 0x01	; 1
     fb0:	90 e0       	ldi	r25, 0x00	; 0
     fb2:	02 c0       	rjmp	.+4      	; 0xfb8 <DIO_enumTogglePinVal+0x68>
     fb4:	88 0f       	add	r24, r24
     fb6:	99 1f       	adc	r25, r25
     fb8:	6a 95       	dec	r22
     fba:	e2 f7       	brpl	.-8      	; 0xfb4 <DIO_enumTogglePinVal+0x64>
     fbc:	28 27       	eor	r18, r24
     fbe:	22 bb       	out	0x12, r18	; 18
     fc0:	81 e0       	ldi	r24, 0x01	; 1
     fc2:	08 95       	ret
     fc4:	80 e0       	ldi	r24, 0x00	; 0
     fc6:	08 95       	ret

00000fc8 <DIO_enumConnectPullUp>:
     fc8:	84 30       	cpi	r24, 0x04	; 4
     fca:	08 f0       	brcs	.+2      	; 0xfce <DIO_enumConnectPullUp+0x6>
     fcc:	8f c0       	rjmp	.+286    	; 0x10ec <DIO_enumConnectPullUp+0x124>
     fce:	68 30       	cpi	r22, 0x08	; 8
     fd0:	08 f0       	brcs	.+2      	; 0xfd4 <DIO_enumConnectPullUp+0xc>
     fd2:	8c c0       	rjmp	.+280    	; 0x10ec <DIO_enumConnectPullUp+0x124>
     fd4:	81 30       	cpi	r24, 0x01	; 1
     fd6:	49 f1       	breq	.+82     	; 0x102a <DIO_enumConnectPullUp+0x62>
     fd8:	81 30       	cpi	r24, 0x01	; 1
     fda:	38 f0       	brcs	.+14     	; 0xfea <DIO_enumConnectPullUp+0x22>
     fdc:	82 30       	cpi	r24, 0x02	; 2
     fde:	09 f4       	brne	.+2      	; 0xfe2 <DIO_enumConnectPullUp+0x1a>
     fe0:	44 c0       	rjmp	.+136    	; 0x106a <DIO_enumConnectPullUp+0xa2>
     fe2:	83 30       	cpi	r24, 0x03	; 3
     fe4:	09 f0       	breq	.+2      	; 0xfe8 <DIO_enumConnectPullUp+0x20>
     fe6:	80 c0       	rjmp	.+256    	; 0x10e8 <DIO_enumConnectPullUp+0x120>
     fe8:	60 c0       	rjmp	.+192    	; 0x10aa <DIO_enumConnectPullUp+0xe2>
     fea:	41 30       	cpi	r20, 0x01	; 1
     fec:	91 f4       	brne	.+36     	; 0x1012 <DIO_enumConnectPullUp+0x4a>
     fee:	80 b7       	in	r24, 0x30	; 48
     ff0:	8b 7f       	andi	r24, 0xFB	; 251
     ff2:	80 bf       	out	0x30, r24	; 48
     ff4:	3a b3       	in	r19, 0x1a	; 26
     ff6:	81 e0       	ldi	r24, 0x01	; 1
     ff8:	90 e0       	ldi	r25, 0x00	; 0
     ffa:	02 c0       	rjmp	.+4      	; 0x1000 <DIO_enumConnectPullUp+0x38>
     ffc:	88 0f       	add	r24, r24
     ffe:	99 1f       	adc	r25, r25
    1000:	6a 95       	dec	r22
    1002:	e2 f7       	brpl	.-8      	; 0xffc <DIO_enumConnectPullUp+0x34>
    1004:	28 2f       	mov	r18, r24
    1006:	20 95       	com	r18
    1008:	23 23       	and	r18, r19
    100a:	2a bb       	out	0x1a, r18	; 26
    100c:	2b b3       	in	r18, 0x1b	; 27
    100e:	82 2b       	or	r24, r18
    1010:	0a c0       	rjmp	.+20     	; 0x1026 <DIO_enumConnectPullUp+0x5e>
    1012:	2b b3       	in	r18, 0x1b	; 27
    1014:	81 e0       	ldi	r24, 0x01	; 1
    1016:	90 e0       	ldi	r25, 0x00	; 0
    1018:	02 c0       	rjmp	.+4      	; 0x101e <DIO_enumConnectPullUp+0x56>
    101a:	88 0f       	add	r24, r24
    101c:	99 1f       	adc	r25, r25
    101e:	6a 95       	dec	r22
    1020:	e2 f7       	brpl	.-8      	; 0x101a <DIO_enumConnectPullUp+0x52>
    1022:	80 95       	com	r24
    1024:	82 23       	and	r24, r18
    1026:	8b bb       	out	0x1b, r24	; 27
    1028:	5f c0       	rjmp	.+190    	; 0x10e8 <DIO_enumConnectPullUp+0x120>
    102a:	41 30       	cpi	r20, 0x01	; 1
    102c:	91 f4       	brne	.+36     	; 0x1052 <DIO_enumConnectPullUp+0x8a>
    102e:	80 b7       	in	r24, 0x30	; 48
    1030:	8b 7f       	andi	r24, 0xFB	; 251
    1032:	80 bf       	out	0x30, r24	; 48
    1034:	37 b3       	in	r19, 0x17	; 23
    1036:	81 e0       	ldi	r24, 0x01	; 1
    1038:	90 e0       	ldi	r25, 0x00	; 0
    103a:	02 c0       	rjmp	.+4      	; 0x1040 <DIO_enumConnectPullUp+0x78>
    103c:	88 0f       	add	r24, r24
    103e:	99 1f       	adc	r25, r25
    1040:	6a 95       	dec	r22
    1042:	e2 f7       	brpl	.-8      	; 0x103c <DIO_enumConnectPullUp+0x74>
    1044:	28 2f       	mov	r18, r24
    1046:	20 95       	com	r18
    1048:	23 23       	and	r18, r19
    104a:	27 bb       	out	0x17, r18	; 23
    104c:	28 b3       	in	r18, 0x18	; 24
    104e:	82 2b       	or	r24, r18
    1050:	0a c0       	rjmp	.+20     	; 0x1066 <DIO_enumConnectPullUp+0x9e>
    1052:	28 b3       	in	r18, 0x18	; 24
    1054:	81 e0       	ldi	r24, 0x01	; 1
    1056:	90 e0       	ldi	r25, 0x00	; 0
    1058:	02 c0       	rjmp	.+4      	; 0x105e <DIO_enumConnectPullUp+0x96>
    105a:	88 0f       	add	r24, r24
    105c:	99 1f       	adc	r25, r25
    105e:	6a 95       	dec	r22
    1060:	e2 f7       	brpl	.-8      	; 0x105a <DIO_enumConnectPullUp+0x92>
    1062:	80 95       	com	r24
    1064:	82 23       	and	r24, r18
    1066:	88 bb       	out	0x18, r24	; 24
    1068:	3f c0       	rjmp	.+126    	; 0x10e8 <DIO_enumConnectPullUp+0x120>
    106a:	41 30       	cpi	r20, 0x01	; 1
    106c:	91 f4       	brne	.+36     	; 0x1092 <DIO_enumConnectPullUp+0xca>
    106e:	80 b7       	in	r24, 0x30	; 48
    1070:	8b 7f       	andi	r24, 0xFB	; 251
    1072:	80 bf       	out	0x30, r24	; 48
    1074:	34 b3       	in	r19, 0x14	; 20
    1076:	81 e0       	ldi	r24, 0x01	; 1
    1078:	90 e0       	ldi	r25, 0x00	; 0
    107a:	02 c0       	rjmp	.+4      	; 0x1080 <DIO_enumConnectPullUp+0xb8>
    107c:	88 0f       	add	r24, r24
    107e:	99 1f       	adc	r25, r25
    1080:	6a 95       	dec	r22
    1082:	e2 f7       	brpl	.-8      	; 0x107c <DIO_enumConnectPullUp+0xb4>
    1084:	28 2f       	mov	r18, r24
    1086:	20 95       	com	r18
    1088:	23 23       	and	r18, r19
    108a:	24 bb       	out	0x14, r18	; 20
    108c:	25 b3       	in	r18, 0x15	; 21
    108e:	82 2b       	or	r24, r18
    1090:	0a c0       	rjmp	.+20     	; 0x10a6 <DIO_enumConnectPullUp+0xde>
    1092:	25 b3       	in	r18, 0x15	; 21
    1094:	81 e0       	ldi	r24, 0x01	; 1
    1096:	90 e0       	ldi	r25, 0x00	; 0
    1098:	02 c0       	rjmp	.+4      	; 0x109e <DIO_enumConnectPullUp+0xd6>
    109a:	88 0f       	add	r24, r24
    109c:	99 1f       	adc	r25, r25
    109e:	6a 95       	dec	r22
    10a0:	e2 f7       	brpl	.-8      	; 0x109a <DIO_enumConnectPullUp+0xd2>
    10a2:	80 95       	com	r24
    10a4:	82 23       	and	r24, r18
    10a6:	85 bb       	out	0x15, r24	; 21
    10a8:	1f c0       	rjmp	.+62     	; 0x10e8 <DIO_enumConnectPullUp+0x120>
    10aa:	41 30       	cpi	r20, 0x01	; 1
    10ac:	91 f4       	brne	.+36     	; 0x10d2 <DIO_enumConnectPullUp+0x10a>
    10ae:	80 b7       	in	r24, 0x30	; 48
    10b0:	8b 7f       	andi	r24, 0xFB	; 251
    10b2:	80 bf       	out	0x30, r24	; 48
    10b4:	31 b3       	in	r19, 0x11	; 17
    10b6:	81 e0       	ldi	r24, 0x01	; 1
    10b8:	90 e0       	ldi	r25, 0x00	; 0
    10ba:	02 c0       	rjmp	.+4      	; 0x10c0 <DIO_enumConnectPullUp+0xf8>
    10bc:	88 0f       	add	r24, r24
    10be:	99 1f       	adc	r25, r25
    10c0:	6a 95       	dec	r22
    10c2:	e2 f7       	brpl	.-8      	; 0x10bc <DIO_enumConnectPullUp+0xf4>
    10c4:	28 2f       	mov	r18, r24
    10c6:	20 95       	com	r18
    10c8:	23 23       	and	r18, r19
    10ca:	21 bb       	out	0x11, r18	; 17
    10cc:	22 b3       	in	r18, 0x12	; 18
    10ce:	82 2b       	or	r24, r18
    10d0:	0a c0       	rjmp	.+20     	; 0x10e6 <DIO_enumConnectPullUp+0x11e>
    10d2:	22 b3       	in	r18, 0x12	; 18
    10d4:	81 e0       	ldi	r24, 0x01	; 1
    10d6:	90 e0       	ldi	r25, 0x00	; 0
    10d8:	02 c0       	rjmp	.+4      	; 0x10de <DIO_enumConnectPullUp+0x116>
    10da:	88 0f       	add	r24, r24
    10dc:	99 1f       	adc	r25, r25
    10de:	6a 95       	dec	r22
    10e0:	e2 f7       	brpl	.-8      	; 0x10da <DIO_enumConnectPullUp+0x112>
    10e2:	80 95       	com	r24
    10e4:	82 23       	and	r24, r18
    10e6:	82 bb       	out	0x12, r24	; 18
    10e8:	81 e0       	ldi	r24, 0x01	; 1
    10ea:	08 95       	ret
    10ec:	80 e0       	ldi	r24, 0x00	; 0
    10ee:	08 95       	ret

000010f0 <DIO_enumSetPortDir>:
    10f0:	84 30       	cpi	r24, 0x04	; 4
    10f2:	90 f4       	brcc	.+36     	; 0x1118 <DIO_enumSetPortDir+0x28>
    10f4:	81 30       	cpi	r24, 0x01	; 1
    10f6:	49 f0       	breq	.+18     	; 0x110a <DIO_enumSetPortDir+0x1a>
    10f8:	81 30       	cpi	r24, 0x01	; 1
    10fa:	28 f0       	brcs	.+10     	; 0x1106 <DIO_enumSetPortDir+0x16>
    10fc:	82 30       	cpi	r24, 0x02	; 2
    10fe:	39 f0       	breq	.+14     	; 0x110e <DIO_enumSetPortDir+0x1e>
    1100:	83 30       	cpi	r24, 0x03	; 3
    1102:	51 f4       	brne	.+20     	; 0x1118 <DIO_enumSetPortDir+0x28>
    1104:	06 c0       	rjmp	.+12     	; 0x1112 <DIO_enumSetPortDir+0x22>
    1106:	6a bb       	out	0x1a, r22	; 26
    1108:	05 c0       	rjmp	.+10     	; 0x1114 <DIO_enumSetPortDir+0x24>
    110a:	67 bb       	out	0x17, r22	; 23
    110c:	03 c0       	rjmp	.+6      	; 0x1114 <DIO_enumSetPortDir+0x24>
    110e:	64 bb       	out	0x14, r22	; 20
    1110:	01 c0       	rjmp	.+2      	; 0x1114 <DIO_enumSetPortDir+0x24>
    1112:	61 bb       	out	0x11, r22	; 17
    1114:	81 e0       	ldi	r24, 0x01	; 1
    1116:	08 95       	ret
    1118:	80 e0       	ldi	r24, 0x00	; 0
    111a:	08 95       	ret

0000111c <DIO_enumWritePortVal>:
    111c:	84 30       	cpi	r24, 0x04	; 4
    111e:	90 f4       	brcc	.+36     	; 0x1144 <DIO_enumWritePortVal+0x28>
    1120:	81 30       	cpi	r24, 0x01	; 1
    1122:	49 f0       	breq	.+18     	; 0x1136 <DIO_enumWritePortVal+0x1a>
    1124:	81 30       	cpi	r24, 0x01	; 1
    1126:	28 f0       	brcs	.+10     	; 0x1132 <DIO_enumWritePortVal+0x16>
    1128:	82 30       	cpi	r24, 0x02	; 2
    112a:	39 f0       	breq	.+14     	; 0x113a <DIO_enumWritePortVal+0x1e>
    112c:	83 30       	cpi	r24, 0x03	; 3
    112e:	51 f4       	brne	.+20     	; 0x1144 <DIO_enumWritePortVal+0x28>
    1130:	06 c0       	rjmp	.+12     	; 0x113e <DIO_enumWritePortVal+0x22>
    1132:	6b bb       	out	0x1b, r22	; 27
    1134:	05 c0       	rjmp	.+10     	; 0x1140 <DIO_enumWritePortVal+0x24>
    1136:	68 bb       	out	0x18, r22	; 24
    1138:	03 c0       	rjmp	.+6      	; 0x1140 <DIO_enumWritePortVal+0x24>
    113a:	65 bb       	out	0x15, r22	; 21
    113c:	01 c0       	rjmp	.+2      	; 0x1140 <DIO_enumWritePortVal+0x24>
    113e:	62 bb       	out	0x12, r22	; 18
    1140:	81 e0       	ldi	r24, 0x01	; 1
    1142:	08 95       	ret
    1144:	80 e0       	ldi	r24, 0x00	; 0
    1146:	08 95       	ret

00001148 <DIO_enumReadPorVal>:
    1148:	fb 01       	movw	r30, r22
    114a:	84 30       	cpi	r24, 0x04	; 4
    114c:	98 f4       	brcc	.+38     	; 0x1174 <DIO_enumReadPorVal+0x2c>
    114e:	81 30       	cpi	r24, 0x01	; 1
    1150:	49 f0       	breq	.+18     	; 0x1164 <DIO_enumReadPorVal+0x1c>
    1152:	81 30       	cpi	r24, 0x01	; 1
    1154:	28 f0       	brcs	.+10     	; 0x1160 <DIO_enumReadPorVal+0x18>
    1156:	82 30       	cpi	r24, 0x02	; 2
    1158:	39 f0       	breq	.+14     	; 0x1168 <DIO_enumReadPorVal+0x20>
    115a:	83 30       	cpi	r24, 0x03	; 3
    115c:	59 f4       	brne	.+22     	; 0x1174 <DIO_enumReadPorVal+0x2c>
    115e:	06 c0       	rjmp	.+12     	; 0x116c <DIO_enumReadPorVal+0x24>
    1160:	89 b3       	in	r24, 0x19	; 25
    1162:	05 c0       	rjmp	.+10     	; 0x116e <DIO_enumReadPorVal+0x26>
    1164:	86 b3       	in	r24, 0x16	; 22
    1166:	03 c0       	rjmp	.+6      	; 0x116e <DIO_enumReadPorVal+0x26>
    1168:	83 b3       	in	r24, 0x13	; 19
    116a:	01 c0       	rjmp	.+2      	; 0x116e <DIO_enumReadPorVal+0x26>
    116c:	80 b3       	in	r24, 0x10	; 16
    116e:	80 83       	st	Z, r24
    1170:	81 e0       	ldi	r24, 0x01	; 1
    1172:	08 95       	ret
    1174:	80 e0       	ldi	r24, 0x00	; 0
    1176:	08 95       	ret

00001178 <DIO_enumTogglePortValue>:
    1178:	84 30       	cpi	r24, 0x04	; 4
    117a:	10 f0       	brcs	.+4      	; 0x1180 <DIO_enumTogglePortValue+0x8>
    117c:	80 e0       	ldi	r24, 0x00	; 0
    117e:	08 95       	ret
    1180:	81 30       	cpi	r24, 0x01	; 1
    1182:	59 f0       	breq	.+22     	; 0x119a <DIO_enumTogglePortValue+0x22>
    1184:	81 30       	cpi	r24, 0x01	; 1
    1186:	28 f0       	brcs	.+10     	; 0x1192 <DIO_enumTogglePortValue+0x1a>
    1188:	82 30       	cpi	r24, 0x02	; 2
    118a:	59 f0       	breq	.+22     	; 0x11a2 <DIO_enumTogglePortValue+0x2a>
    118c:	83 30       	cpi	r24, 0x03	; 3
    118e:	61 f4       	brne	.+24     	; 0x11a8 <DIO_enumTogglePortValue+0x30>
    1190:	0d c0       	rjmp	.+26     	; 0x11ac <DIO_enumTogglePortValue+0x34>
    1192:	8b b3       	in	r24, 0x1b	; 27
    1194:	80 95       	com	r24
    1196:	8b bb       	out	0x1b, r24	; 27
    1198:	07 c0       	rjmp	.+14     	; 0x11a8 <DIO_enumTogglePortValue+0x30>
    119a:	88 b3       	in	r24, 0x18	; 24
    119c:	80 95       	com	r24
    119e:	88 bb       	out	0x18, r24	; 24
    11a0:	03 c0       	rjmp	.+6      	; 0x11a8 <DIO_enumTogglePortValue+0x30>
    11a2:	85 b3       	in	r24, 0x15	; 21
    11a4:	80 95       	com	r24
    11a6:	85 bb       	out	0x15, r24	; 21
    11a8:	81 e0       	ldi	r24, 0x01	; 1
    11aa:	08 95       	ret
    11ac:	82 b3       	in	r24, 0x12	; 18
    11ae:	80 95       	com	r24
    11b0:	82 bb       	out	0x12, r24	; 18
    11b2:	81 e0       	ldi	r24, 0x01	; 1
    11b4:	08 95       	ret

000011b6 <DIO_vWriteLowNibble>:
    11b6:	84 30       	cpi	r24, 0x04	; 4
    11b8:	10 f0       	brcs	.+4      	; 0x11be <DIO_vWriteLowNibble+0x8>
    11ba:	80 e0       	ldi	r24, 0x00	; 0
    11bc:	08 95       	ret
    11be:	6f 70       	andi	r22, 0x0F	; 15
    11c0:	81 30       	cpi	r24, 0x01	; 1
    11c2:	71 f0       	breq	.+28     	; 0x11e0 <DIO_vWriteLowNibble+0x2a>
    11c4:	81 30       	cpi	r24, 0x01	; 1
    11c6:	28 f0       	brcs	.+10     	; 0x11d2 <DIO_vWriteLowNibble+0x1c>
    11c8:	82 30       	cpi	r24, 0x02	; 2
    11ca:	89 f0       	breq	.+34     	; 0x11ee <DIO_vWriteLowNibble+0x38>
    11cc:	83 30       	cpi	r24, 0x03	; 3
    11ce:	a9 f4       	brne	.+42     	; 0x11fa <DIO_vWriteLowNibble+0x44>
    11d0:	16 c0       	rjmp	.+44     	; 0x11fe <DIO_vWriteLowNibble+0x48>
    11d2:	8b b3       	in	r24, 0x1b	; 27
    11d4:	80 7f       	andi	r24, 0xF0	; 240
    11d6:	8b bb       	out	0x1b, r24	; 27
    11d8:	8b b3       	in	r24, 0x1b	; 27
    11da:	68 2b       	or	r22, r24
    11dc:	6b bb       	out	0x1b, r22	; 27
    11de:	0d c0       	rjmp	.+26     	; 0x11fa <DIO_vWriteLowNibble+0x44>
    11e0:	88 b3       	in	r24, 0x18	; 24
    11e2:	80 7f       	andi	r24, 0xF0	; 240
    11e4:	88 bb       	out	0x18, r24	; 24
    11e6:	88 b3       	in	r24, 0x18	; 24
    11e8:	68 2b       	or	r22, r24
    11ea:	68 bb       	out	0x18, r22	; 24
    11ec:	06 c0       	rjmp	.+12     	; 0x11fa <DIO_vWriteLowNibble+0x44>
    11ee:	85 b3       	in	r24, 0x15	; 21
    11f0:	80 7f       	andi	r24, 0xF0	; 240
    11f2:	85 bb       	out	0x15, r24	; 21
    11f4:	85 b3       	in	r24, 0x15	; 21
    11f6:	68 2b       	or	r22, r24
    11f8:	65 bb       	out	0x15, r22	; 21
    11fa:	81 e0       	ldi	r24, 0x01	; 1
    11fc:	08 95       	ret
    11fe:	82 b3       	in	r24, 0x12	; 18
    1200:	80 7f       	andi	r24, 0xF0	; 240
    1202:	82 bb       	out	0x12, r24	; 18
    1204:	82 b3       	in	r24, 0x12	; 18
    1206:	68 2b       	or	r22, r24
    1208:	62 bb       	out	0x12, r22	; 18
    120a:	81 e0       	ldi	r24, 0x01	; 1
    120c:	08 95       	ret

0000120e <DIO_vWriteHighNibble>:
    120e:	84 30       	cpi	r24, 0x04	; 4
    1210:	10 f0       	brcs	.+4      	; 0x1216 <DIO_vWriteHighNibble+0x8>
    1212:	80 e0       	ldi	r24, 0x00	; 0
    1214:	08 95       	ret
    1216:	62 95       	swap	r22
    1218:	60 7f       	andi	r22, 0xF0	; 240
    121a:	81 30       	cpi	r24, 0x01	; 1
    121c:	71 f0       	breq	.+28     	; 0x123a <DIO_vWriteHighNibble+0x2c>
    121e:	81 30       	cpi	r24, 0x01	; 1
    1220:	28 f0       	brcs	.+10     	; 0x122c <DIO_vWriteHighNibble+0x1e>
    1222:	82 30       	cpi	r24, 0x02	; 2
    1224:	89 f0       	breq	.+34     	; 0x1248 <DIO_vWriteHighNibble+0x3a>
    1226:	83 30       	cpi	r24, 0x03	; 3
    1228:	a9 f4       	brne	.+42     	; 0x1254 <DIO_vWriteHighNibble+0x46>
    122a:	16 c0       	rjmp	.+44     	; 0x1258 <DIO_vWriteHighNibble+0x4a>
    122c:	8b b3       	in	r24, 0x1b	; 27
    122e:	8f 70       	andi	r24, 0x0F	; 15
    1230:	8b bb       	out	0x1b, r24	; 27
    1232:	8b b3       	in	r24, 0x1b	; 27
    1234:	68 2b       	or	r22, r24
    1236:	6b bb       	out	0x1b, r22	; 27
    1238:	0d c0       	rjmp	.+26     	; 0x1254 <DIO_vWriteHighNibble+0x46>
    123a:	88 b3       	in	r24, 0x18	; 24
    123c:	8f 70       	andi	r24, 0x0F	; 15
    123e:	88 bb       	out	0x18, r24	; 24
    1240:	88 b3       	in	r24, 0x18	; 24
    1242:	68 2b       	or	r22, r24
    1244:	68 bb       	out	0x18, r22	; 24
    1246:	06 c0       	rjmp	.+12     	; 0x1254 <DIO_vWriteHighNibble+0x46>
    1248:	85 b3       	in	r24, 0x15	; 21
    124a:	8f 70       	andi	r24, 0x0F	; 15
    124c:	85 bb       	out	0x15, r24	; 21
    124e:	85 b3       	in	r24, 0x15	; 21
    1250:	68 2b       	or	r22, r24
    1252:	65 bb       	out	0x15, r22	; 21
    1254:	81 e0       	ldi	r24, 0x01	; 1
    1256:	08 95       	ret
    1258:	82 b3       	in	r24, 0x12	; 18
    125a:	8f 70       	andi	r24, 0x0F	; 15
    125c:	82 bb       	out	0x12, r24	; 18
    125e:	82 b3       	in	r24, 0x12	; 18
    1260:	68 2b       	or	r22, r24
    1262:	62 bb       	out	0x12, r22	; 18
    1264:	81 e0       	ldi	r24, 0x01	; 1
    1266:	08 95       	ret

00001268 <DIO_vSetLowNibbleDir>:
    1268:	84 30       	cpi	r24, 0x04	; 4
    126a:	10 f0       	brcs	.+4      	; 0x1270 <DIO_vSetLowNibbleDir+0x8>
    126c:	80 e0       	ldi	r24, 0x00	; 0
    126e:	08 95       	ret
    1270:	6f 70       	andi	r22, 0x0F	; 15
    1272:	81 30       	cpi	r24, 0x01	; 1
    1274:	71 f0       	breq	.+28     	; 0x1292 <DIO_vSetLowNibbleDir+0x2a>
    1276:	81 30       	cpi	r24, 0x01	; 1
    1278:	28 f0       	brcs	.+10     	; 0x1284 <DIO_vSetLowNibbleDir+0x1c>
    127a:	82 30       	cpi	r24, 0x02	; 2
    127c:	89 f0       	breq	.+34     	; 0x12a0 <DIO_vSetLowNibbleDir+0x38>
    127e:	83 30       	cpi	r24, 0x03	; 3
    1280:	a9 f4       	brne	.+42     	; 0x12ac <DIO_vSetLowNibbleDir+0x44>
    1282:	16 c0       	rjmp	.+44     	; 0x12b0 <DIO_vSetLowNibbleDir+0x48>
    1284:	8a b3       	in	r24, 0x1a	; 26
    1286:	80 7f       	andi	r24, 0xF0	; 240
    1288:	8a bb       	out	0x1a, r24	; 26
    128a:	8a b3       	in	r24, 0x1a	; 26
    128c:	68 2b       	or	r22, r24
    128e:	6a bb       	out	0x1a, r22	; 26
    1290:	0d c0       	rjmp	.+26     	; 0x12ac <DIO_vSetLowNibbleDir+0x44>
    1292:	87 b3       	in	r24, 0x17	; 23
    1294:	80 7f       	andi	r24, 0xF0	; 240
    1296:	87 bb       	out	0x17, r24	; 23
    1298:	87 b3       	in	r24, 0x17	; 23
    129a:	68 2b       	or	r22, r24
    129c:	67 bb       	out	0x17, r22	; 23
    129e:	06 c0       	rjmp	.+12     	; 0x12ac <DIO_vSetLowNibbleDir+0x44>
    12a0:	84 b3       	in	r24, 0x14	; 20
    12a2:	80 7f       	andi	r24, 0xF0	; 240
    12a4:	84 bb       	out	0x14, r24	; 20
    12a6:	84 b3       	in	r24, 0x14	; 20
    12a8:	68 2b       	or	r22, r24
    12aa:	64 bb       	out	0x14, r22	; 20
    12ac:	81 e0       	ldi	r24, 0x01	; 1
    12ae:	08 95       	ret
    12b0:	81 b3       	in	r24, 0x11	; 17
    12b2:	80 7f       	andi	r24, 0xF0	; 240
    12b4:	81 bb       	out	0x11, r24	; 17
    12b6:	81 b3       	in	r24, 0x11	; 17
    12b8:	68 2b       	or	r22, r24
    12ba:	61 bb       	out	0x11, r22	; 17
    12bc:	81 e0       	ldi	r24, 0x01	; 1
    12be:	08 95       	ret

000012c0 <DIO_vSetHighNibbleDir>:
    12c0:	84 30       	cpi	r24, 0x04	; 4
    12c2:	10 f0       	brcs	.+4      	; 0x12c8 <DIO_vSetHighNibbleDir+0x8>
    12c4:	80 e0       	ldi	r24, 0x00	; 0
    12c6:	08 95       	ret
    12c8:	62 95       	swap	r22
    12ca:	60 7f       	andi	r22, 0xF0	; 240
    12cc:	81 30       	cpi	r24, 0x01	; 1
    12ce:	71 f0       	breq	.+28     	; 0x12ec <DIO_vSetHighNibbleDir+0x2c>
    12d0:	81 30       	cpi	r24, 0x01	; 1
    12d2:	28 f0       	brcs	.+10     	; 0x12de <DIO_vSetHighNibbleDir+0x1e>
    12d4:	82 30       	cpi	r24, 0x02	; 2
    12d6:	89 f0       	breq	.+34     	; 0x12fa <DIO_vSetHighNibbleDir+0x3a>
    12d8:	83 30       	cpi	r24, 0x03	; 3
    12da:	a9 f4       	brne	.+42     	; 0x1306 <DIO_vSetHighNibbleDir+0x46>
    12dc:	16 c0       	rjmp	.+44     	; 0x130a <DIO_vSetHighNibbleDir+0x4a>
    12de:	8a b3       	in	r24, 0x1a	; 26
    12e0:	8f 70       	andi	r24, 0x0F	; 15
    12e2:	8a bb       	out	0x1a, r24	; 26
    12e4:	8a b3       	in	r24, 0x1a	; 26
    12e6:	68 2b       	or	r22, r24
    12e8:	6a bb       	out	0x1a, r22	; 26
    12ea:	0d c0       	rjmp	.+26     	; 0x1306 <DIO_vSetHighNibbleDir+0x46>
    12ec:	87 b3       	in	r24, 0x17	; 23
    12ee:	8f 70       	andi	r24, 0x0F	; 15
    12f0:	87 bb       	out	0x17, r24	; 23
    12f2:	87 b3       	in	r24, 0x17	; 23
    12f4:	68 2b       	or	r22, r24
    12f6:	67 bb       	out	0x17, r22	; 23
    12f8:	06 c0       	rjmp	.+12     	; 0x1306 <DIO_vSetHighNibbleDir+0x46>
    12fa:	84 b3       	in	r24, 0x14	; 20
    12fc:	8f 70       	andi	r24, 0x0F	; 15
    12fe:	84 bb       	out	0x14, r24	; 20
    1300:	84 b3       	in	r24, 0x14	; 20
    1302:	68 2b       	or	r22, r24
    1304:	64 bb       	out	0x14, r22	; 20
    1306:	81 e0       	ldi	r24, 0x01	; 1
    1308:	08 95       	ret
    130a:	81 b3       	in	r24, 0x11	; 17
    130c:	8f 70       	andi	r24, 0x0F	; 15
    130e:	81 bb       	out	0x11, r24	; 17
    1310:	81 b3       	in	r24, 0x11	; 17
    1312:	68 2b       	or	r22, r24
    1314:	61 bb       	out	0x11, r22	; 17
    1316:	81 e0       	ldi	r24, 0x01	; 1
    1318:	08 95       	ret

0000131a <LED_vTog>:
    131a:	df 93       	push	r29
    131c:	cf 93       	push	r28
    131e:	00 d0       	rcall	.+0      	; 0x1320 <LED_vTog+0x6>
    1320:	0f 92       	push	r0
    1322:	cd b7       	in	r28, 0x3d	; 61
    1324:	de b7       	in	r29, 0x3e	; 62
    1326:	96 2f       	mov	r25, r22
    1328:	69 83       	std	Y+1, r22	; 0x01
    132a:	67 2f       	mov	r22, r23
    132c:	7a 83       	std	Y+2, r23	; 0x02
    132e:	8b 83       	std	Y+3, r24	; 0x03
    1330:	89 2f       	mov	r24, r25
    1332:	0e 94 a8 07 	call	0xf50	; 0xf50 <DIO_enumTogglePinVal>
    1336:	0f 90       	pop	r0
    1338:	0f 90       	pop	r0
    133a:	0f 90       	pop	r0
    133c:	cf 91       	pop	r28
    133e:	df 91       	pop	r29
    1340:	08 95       	ret

00001342 <LED_vTurnOff>:
    1342:	df 93       	push	r29
    1344:	cf 93       	push	r28
    1346:	00 d0       	rcall	.+0      	; 0x1348 <LED_vTurnOff+0x6>
    1348:	0f 92       	push	r0
    134a:	cd b7       	in	r28, 0x3d	; 61
    134c:	de b7       	in	r29, 0x3e	; 62
    134e:	26 2f       	mov	r18, r22
    1350:	69 83       	std	Y+1, r22	; 0x01
    1352:	7a 83       	std	Y+2, r23	; 0x02
    1354:	8b 83       	std	Y+3, r24	; 0x03
    1356:	67 2f       	mov	r22, r23
    1358:	81 30       	cpi	r24, 0x01	; 1
    135a:	19 f4       	brne	.+6      	; 0x1362 <LED_vTurnOff+0x20>
    135c:	82 2f       	mov	r24, r18
    135e:	40 e0       	ldi	r20, 0x00	; 0
    1360:	04 c0       	rjmp	.+8      	; 0x136a <LED_vTurnOff+0x28>
    1362:	88 23       	and	r24, r24
    1364:	21 f4       	brne	.+8      	; 0x136e <LED_vTurnOff+0x2c>
    1366:	82 2f       	mov	r24, r18
    1368:	41 e0       	ldi	r20, 0x01	; 1
    136a:	0e 94 00 07 	call	0xe00	; 0xe00 <DIO_enumWritePinVal>
    136e:	0f 90       	pop	r0
    1370:	0f 90       	pop	r0
    1372:	0f 90       	pop	r0
    1374:	cf 91       	pop	r28
    1376:	df 91       	pop	r29
    1378:	08 95       	ret

0000137a <LED_vTurnOn>:
    137a:	df 93       	push	r29
    137c:	cf 93       	push	r28
    137e:	00 d0       	rcall	.+0      	; 0x1380 <LED_vTurnOn+0x6>
    1380:	0f 92       	push	r0
    1382:	cd b7       	in	r28, 0x3d	; 61
    1384:	de b7       	in	r29, 0x3e	; 62
    1386:	26 2f       	mov	r18, r22
    1388:	69 83       	std	Y+1, r22	; 0x01
    138a:	7a 83       	std	Y+2, r23	; 0x02
    138c:	8b 83       	std	Y+3, r24	; 0x03
    138e:	67 2f       	mov	r22, r23
    1390:	81 30       	cpi	r24, 0x01	; 1
    1392:	19 f4       	brne	.+6      	; 0x139a <LED_vTurnOn+0x20>
    1394:	82 2f       	mov	r24, r18
    1396:	41 e0       	ldi	r20, 0x01	; 1
    1398:	04 c0       	rjmp	.+8      	; 0x13a2 <LED_vTurnOn+0x28>
    139a:	88 23       	and	r24, r24
    139c:	21 f4       	brne	.+8      	; 0x13a6 <LED_vTurnOn+0x2c>
    139e:	82 2f       	mov	r24, r18
    13a0:	40 e0       	ldi	r20, 0x00	; 0
    13a2:	0e 94 00 07 	call	0xe00	; 0xe00 <DIO_enumWritePinVal>
    13a6:	0f 90       	pop	r0
    13a8:	0f 90       	pop	r0
    13aa:	0f 90       	pop	r0
    13ac:	cf 91       	pop	r28
    13ae:	df 91       	pop	r29
    13b0:	08 95       	ret

000013b2 <LED_vInit>:
    13b2:	df 93       	push	r29
    13b4:	cf 93       	push	r28
    13b6:	00 d0       	rcall	.+0      	; 0x13b8 <LED_vInit+0x6>
    13b8:	0f 92       	push	r0
    13ba:	cd b7       	in	r28, 0x3d	; 61
    13bc:	de b7       	in	r29, 0x3e	; 62
    13be:	96 2f       	mov	r25, r22
    13c0:	69 83       	std	Y+1, r22	; 0x01
    13c2:	67 2f       	mov	r22, r23
    13c4:	7a 83       	std	Y+2, r23	; 0x02
    13c6:	8b 83       	std	Y+3, r24	; 0x03
    13c8:	89 2f       	mov	r24, r25
    13ca:	41 e0       	ldi	r20, 0x01	; 1
    13cc:	0e 94 82 06 	call	0xd04	; 0xd04 <DIO_enumSetPinDir>
    13d0:	0f 90       	pop	r0
    13d2:	0f 90       	pop	r0
    13d4:	0f 90       	pop	r0
    13d6:	cf 91       	pop	r28
    13d8:	df 91       	pop	r29
    13da:	08 95       	ret

000013dc <Error_TimeOut>:
    13dc:	1f 93       	push	r17
    13de:	cf 93       	push	r28
    13e0:	df 93       	push	r29
    13e2:	80 e6       	ldi	r24, 0x60	; 96
    13e4:	90 e0       	ldi	r25, 0x00	; 0
    13e6:	0e 94 a8 00 	call	0x150	; 0x150 <USART_u8SendStringSynch>
    13ea:	15 e3       	ldi	r17, 0x35	; 53
    13ec:	c8 ec       	ldi	r28, 0xC8	; 200
    13ee:	d0 e0       	ldi	r29, 0x00	; 0
    13f0:	80 e2       	ldi	r24, 0x20	; 32
    13f2:	0e 94 57 00 	call	0xae	; 0xae <USART_u8SendData>
    13f6:	81 2f       	mov	r24, r17
    13f8:	0e 94 57 00 	call	0xae	; 0xae <USART_u8SendData>
    13fc:	80 e1       	ldi	r24, 0x10	; 16
    13fe:	97 e2       	ldi	r25, 0x27	; 39
    1400:	fe 01       	movw	r30, r28
    1402:	31 97       	sbiw	r30, 0x01	; 1
    1404:	f1 f7       	brne	.-4      	; 0x1402 <Error_TimeOut+0x26>
    1406:	01 97       	sbiw	r24, 0x01	; 1
    1408:	d9 f7       	brne	.-10     	; 0x1400 <Error_TimeOut+0x24>
    140a:	11 50       	subi	r17, 0x01	; 1
    140c:	10 33       	cpi	r17, 0x30	; 48
    140e:	81 f7       	brne	.-32     	; 0x13f0 <Error_TimeOut+0x14>
    1410:	8d e0       	ldi	r24, 0x0D	; 13
    1412:	0e 94 57 00 	call	0xae	; 0xae <USART_u8SendData>
    1416:	82 e1       	ldi	r24, 0x12	; 18
    1418:	90 e0       	ldi	r25, 0x00	; 0
    141a:	6f ef       	ldi	r22, 0xFF	; 255
    141c:	0e 94 75 06 	call	0xcea	; 0xcea <EEPROM_vWrite>
    1420:	83 e0       	ldi	r24, 0x03	; 3
    1422:	80 93 9c 05 	sts	0x059C, r24
    1426:	df 91       	pop	r29
    1428:	cf 91       	pop	r28
    142a:	1f 91       	pop	r17
    142c:	08 95       	ret

0000142e <PassWord_Set>:
    142e:	8b e6       	ldi	r24, 0x6B	; 107
    1430:	90 e0       	ldi	r25, 0x00	; 0
    1432:	0e 94 a8 00 	call	0x150	; 0x150 <USART_u8SendStringSynch>
    1436:	8d e0       	ldi	r24, 0x0D	; 13
    1438:	0e 94 57 00 	call	0xae	; 0xae <USART_u8SendData>
    143c:	88 e7       	ldi	r24, 0x78	; 120
    143e:	90 e0       	ldi	r25, 0x00	; 0
    1440:	0e 94 a8 00 	call	0x150	; 0x150 <USART_u8SendStringSynch>
    1444:	8d e0       	ldi	r24, 0x0D	; 13
    1446:	0e 94 57 00 	call	0xae	; 0xae <USART_u8SendData>
    144a:	10 92 09 06 	sts	0x0609, r1
    144e:	80 91 09 06 	lds	r24, 0x0609
    1452:	88 23       	and	r24, r24
    1454:	b9 f0       	breq	.+46     	; 0x1484 <PassWord_Set+0x56>
    1456:	8a e8       	ldi	r24, 0x8A	; 138
    1458:	90 e0       	ldi	r25, 0x00	; 0
    145a:	0e 94 a8 00 	call	0x150	; 0x150 <USART_u8SendStringSynch>
    145e:	8d e0       	ldi	r24, 0x0D	; 13
    1460:	0e 94 57 00 	call	0xae	; 0xae <USART_u8SendData>
    1464:	8c ea       	ldi	r24, 0xAC	; 172
    1466:	90 e0       	ldi	r25, 0x00	; 0
    1468:	0e 94 a8 00 	call	0x150	; 0x150 <USART_u8SendStringSynch>
    146c:	8d e0       	ldi	r24, 0x0D	; 13
    146e:	0e 94 57 00 	call	0xae	; 0xae <USART_u8SendData>
    1472:	88 e7       	ldi	r24, 0x78	; 120
    1474:	90 e0       	ldi	r25, 0x00	; 0
    1476:	0e 94 a8 00 	call	0x150	; 0x150 <USART_u8SendStringSynch>
    147a:	8d e0       	ldi	r24, 0x0D	; 13
    147c:	0e 94 57 00 	call	0xae	; 0xae <USART_u8SendData>
    1480:	10 92 09 06 	sts	0x0609, r1
    1484:	82 e2       	ldi	r24, 0x22	; 34
    1486:	96 e0       	ldi	r25, 0x06	; 6
    1488:	0e 94 7d 00 	call	0xfa	; 0xfa <USART_u8ReceiveData>
    148c:	80 93 9f 05 	sts	0x059F, r24
    1490:	80 91 9f 05 	lds	r24, 0x059F
    1494:	88 23       	and	r24, r24
    1496:	89 f4       	brne	.+34     	; 0x14ba <PassWord_Set+0x8c>
    1498:	80 91 09 06 	lds	r24, 0x0609
    149c:	88 23       	and	r24, r24
    149e:	69 f4       	brne	.+26     	; 0x14ba <PassWord_Set+0x8c>
    14a0:	80 91 22 06 	lds	r24, 0x0622
    14a4:	8d 30       	cpi	r24, 0x0D	; 13
    14a6:	71 f3       	breq	.-36     	; 0x1484 <PassWord_Set+0x56>
    14a8:	80 91 22 06 	lds	r24, 0x0622
    14ac:	8f 30       	cpi	r24, 0x0F	; 15
    14ae:	51 f3       	breq	.-44     	; 0x1484 <PassWord_Set+0x56>
    14b0:	80 91 22 06 	lds	r24, 0x0622
    14b4:	88 30       	cpi	r24, 0x08	; 8
    14b6:	31 f3       	breq	.-52     	; 0x1484 <PassWord_Set+0x56>
    14b8:	14 c0       	rjmp	.+40     	; 0x14e2 <PassWord_Set+0xb4>
    14ba:	80 91 9f 05 	lds	r24, 0x059F
    14be:	88 23       	and	r24, r24
    14c0:	e9 f4       	brne	.+58     	; 0x14fc <PassWord_Set+0xce>
    14c2:	80 91 09 06 	lds	r24, 0x0609
    14c6:	84 31       	cpi	r24, 0x14	; 20
    14c8:	c8 f4       	brcc	.+50     	; 0x14fc <PassWord_Set+0xce>
    14ca:	80 91 22 06 	lds	r24, 0x0622
    14ce:	8d 30       	cpi	r24, 0x0D	; 13
    14d0:	91 f1       	breq	.+100    	; 0x1536 <PassWord_Set+0x108>
    14d2:	80 91 22 06 	lds	r24, 0x0622
    14d6:	8f 30       	cpi	r24, 0x0F	; 15
    14d8:	71 f1       	breq	.+92     	; 0x1536 <PassWord_Set+0x108>
    14da:	80 91 22 06 	lds	r24, 0x0622
    14de:	88 30       	cpi	r24, 0x08	; 8
    14e0:	21 f1       	breq	.+72     	; 0x152a <PassWord_Set+0xfc>
    14e2:	80 91 09 06 	lds	r24, 0x0609
    14e6:	60 91 22 06 	lds	r22, 0x0622
    14ea:	90 e0       	ldi	r25, 0x00	; 0
    14ec:	8f 5b       	subi	r24, 0xBF	; 191
    14ee:	9f 4f       	sbci	r25, 0xFF	; 255
    14f0:	0e 94 75 06 	call	0xcea	; 0xcea <EEPROM_vWrite>
    14f4:	80 91 09 06 	lds	r24, 0x0609
    14f8:	8f 5f       	subi	r24, 0xFF	; 255
    14fa:	1a c0       	rjmp	.+52     	; 0x1530 <PassWord_Set+0x102>
    14fc:	80 91 9f 05 	lds	r24, 0x059F
    1500:	88 23       	and	r24, r24
    1502:	09 f0       	breq	.+2      	; 0x1506 <PassWord_Set+0xd8>
    1504:	bf cf       	rjmp	.-130    	; 0x1484 <PassWord_Set+0x56>
    1506:	80 91 09 06 	lds	r24, 0x0609
    150a:	84 31       	cpi	r24, 0x14	; 20
    150c:	08 f4       	brcc	.+2      	; 0x1510 <PassWord_Set+0xe2>
    150e:	ba cf       	rjmp	.-140    	; 0x1484 <PassWord_Set+0x56>
    1510:	80 91 22 06 	lds	r24, 0x0622
    1514:	8d 30       	cpi	r24, 0x0D	; 13
    1516:	79 f0       	breq	.+30     	; 0x1536 <PassWord_Set+0x108>
    1518:	80 91 22 06 	lds	r24, 0x0622
    151c:	8f 30       	cpi	r24, 0x0F	; 15
    151e:	59 f0       	breq	.+22     	; 0x1536 <PassWord_Set+0x108>
    1520:	80 91 22 06 	lds	r24, 0x0622
    1524:	88 30       	cpi	r24, 0x08	; 8
    1526:	09 f0       	breq	.+2      	; 0x152a <PassWord_Set+0xfc>
    1528:	ad cf       	rjmp	.-166    	; 0x1484 <PassWord_Set+0x56>
    152a:	80 91 09 06 	lds	r24, 0x0609
    152e:	81 50       	subi	r24, 0x01	; 1
    1530:	80 93 09 06 	sts	0x0609, r24
    1534:	a7 cf       	rjmp	.-178    	; 0x1484 <PassWord_Set+0x56>
    1536:	80 91 09 06 	lds	r24, 0x0609
    153a:	86 30       	cpi	r24, 0x06	; 6
    153c:	08 f4       	brcc	.+2      	; 0x1540 <PassWord_Set+0x112>
    153e:	87 cf       	rjmp	.-242    	; 0x144e <PassWord_Set+0x20>
    1540:	81 e1       	ldi	r24, 0x11	; 17
    1542:	90 e0       	ldi	r25, 0x00	; 0
    1544:	60 e0       	ldi	r22, 0x00	; 0
    1546:	0e 94 75 06 	call	0xcea	; 0xcea <EEPROM_vWrite>
    154a:	60 91 09 06 	lds	r22, 0x0609
    154e:	84 e1       	ldi	r24, 0x14	; 20
    1550:	90 e0       	ldi	r25, 0x00	; 0
    1552:	0e 94 75 06 	call	0xcea	; 0xcea <EEPROM_vWrite>
    1556:	08 95       	ret

00001558 <UserName_Set>:
    1558:	8c eb       	ldi	r24, 0xBC	; 188
    155a:	90 e0       	ldi	r25, 0x00	; 0
    155c:	0e 94 a8 00 	call	0x150	; 0x150 <USART_u8SendStringSynch>
    1560:	8d e0       	ldi	r24, 0x0D	; 13
    1562:	0e 94 57 00 	call	0xae	; 0xae <USART_u8SendData>
    1566:	88 e7       	ldi	r24, 0x78	; 120
    1568:	90 e0       	ldi	r25, 0x00	; 0
    156a:	0e 94 a8 00 	call	0x150	; 0x150 <USART_u8SendStringSynch>
    156e:	8d e0       	ldi	r24, 0x0D	; 13
    1570:	0e 94 57 00 	call	0xae	; 0xae <USART_u8SendData>
    1574:	10 92 08 06 	sts	0x0608, r1
    1578:	80 91 08 06 	lds	r24, 0x0608
    157c:	88 23       	and	r24, r24
    157e:	81 f0       	breq	.+32     	; 0x15a0 <UserName_Set+0x48>
    1580:	89 ec       	ldi	r24, 0xC9	; 201
    1582:	90 e0       	ldi	r25, 0x00	; 0
    1584:	0e 94 a8 00 	call	0x150	; 0x150 <USART_u8SendStringSynch>
    1588:	8d e0       	ldi	r24, 0x0D	; 13
    158a:	0e 94 57 00 	call	0xae	; 0xae <USART_u8SendData>
    158e:	8b ee       	ldi	r24, 0xEB	; 235
    1590:	90 e0       	ldi	r25, 0x00	; 0
    1592:	0e 94 a8 00 	call	0x150	; 0x150 <USART_u8SendStringSynch>
    1596:	8d e0       	ldi	r24, 0x0D	; 13
    1598:	0e 94 57 00 	call	0xae	; 0xae <USART_u8SendData>
    159c:	10 92 08 06 	sts	0x0608, r1
    15a0:	82 e2       	ldi	r24, 0x22	; 34
    15a2:	96 e0       	ldi	r25, 0x06	; 6
    15a4:	0e 94 7d 00 	call	0xfa	; 0xfa <USART_u8ReceiveData>
    15a8:	80 93 9f 05 	sts	0x059F, r24
    15ac:	80 91 9f 05 	lds	r24, 0x059F
    15b0:	88 23       	and	r24, r24
    15b2:	89 f4       	brne	.+34     	; 0x15d6 <UserName_Set+0x7e>
    15b4:	80 91 08 06 	lds	r24, 0x0608
    15b8:	88 23       	and	r24, r24
    15ba:	69 f4       	brne	.+26     	; 0x15d6 <UserName_Set+0x7e>
    15bc:	80 91 22 06 	lds	r24, 0x0622
    15c0:	8d 30       	cpi	r24, 0x0D	; 13
    15c2:	71 f3       	breq	.-36     	; 0x15a0 <UserName_Set+0x48>
    15c4:	80 91 22 06 	lds	r24, 0x0622
    15c8:	8f 30       	cpi	r24, 0x0F	; 15
    15ca:	51 f3       	breq	.-44     	; 0x15a0 <UserName_Set+0x48>
    15cc:	80 91 22 06 	lds	r24, 0x0622
    15d0:	88 30       	cpi	r24, 0x08	; 8
    15d2:	31 f3       	breq	.-52     	; 0x15a0 <UserName_Set+0x48>
    15d4:	14 c0       	rjmp	.+40     	; 0x15fe <UserName_Set+0xa6>
    15d6:	80 91 9f 05 	lds	r24, 0x059F
    15da:	88 23       	and	r24, r24
    15dc:	e1 f4       	brne	.+56     	; 0x1616 <UserName_Set+0xbe>
    15de:	80 91 08 06 	lds	r24, 0x0608
    15e2:	84 31       	cpi	r24, 0x14	; 20
    15e4:	c0 f4       	brcc	.+48     	; 0x1616 <UserName_Set+0xbe>
    15e6:	80 91 22 06 	lds	r24, 0x0622
    15ea:	8d 30       	cpi	r24, 0x0D	; 13
    15ec:	81 f1       	breq	.+96     	; 0x164e <UserName_Set+0xf6>
    15ee:	80 91 22 06 	lds	r24, 0x0622
    15f2:	8f 30       	cpi	r24, 0x0F	; 15
    15f4:	61 f1       	breq	.+88     	; 0x164e <UserName_Set+0xf6>
    15f6:	80 91 22 06 	lds	r24, 0x0622
    15fa:	88 30       	cpi	r24, 0x08	; 8
    15fc:	11 f1       	breq	.+68     	; 0x1642 <UserName_Set+0xea>
    15fe:	80 91 08 06 	lds	r24, 0x0608
    1602:	60 91 22 06 	lds	r22, 0x0622
    1606:	90 e0       	ldi	r25, 0x00	; 0
    1608:	81 96       	adiw	r24, 0x21	; 33
    160a:	0e 94 75 06 	call	0xcea	; 0xcea <EEPROM_vWrite>
    160e:	80 91 08 06 	lds	r24, 0x0608
    1612:	8f 5f       	subi	r24, 0xFF	; 255
    1614:	19 c0       	rjmp	.+50     	; 0x1648 <UserName_Set+0xf0>
    1616:	80 91 9f 05 	lds	r24, 0x059F
    161a:	88 23       	and	r24, r24
    161c:	09 f6       	brne	.-126    	; 0x15a0 <UserName_Set+0x48>
    161e:	80 91 08 06 	lds	r24, 0x0608
    1622:	84 31       	cpi	r24, 0x14	; 20
    1624:	08 f4       	brcc	.+2      	; 0x1628 <UserName_Set+0xd0>
    1626:	bc cf       	rjmp	.-136    	; 0x15a0 <UserName_Set+0x48>
    1628:	80 91 22 06 	lds	r24, 0x0622
    162c:	8d 30       	cpi	r24, 0x0D	; 13
    162e:	79 f0       	breq	.+30     	; 0x164e <UserName_Set+0xf6>
    1630:	80 91 22 06 	lds	r24, 0x0622
    1634:	8f 30       	cpi	r24, 0x0F	; 15
    1636:	59 f0       	breq	.+22     	; 0x164e <UserName_Set+0xf6>
    1638:	80 91 22 06 	lds	r24, 0x0622
    163c:	88 30       	cpi	r24, 0x08	; 8
    163e:	09 f0       	breq	.+2      	; 0x1642 <UserName_Set+0xea>
    1640:	af cf       	rjmp	.-162    	; 0x15a0 <UserName_Set+0x48>
    1642:	80 91 08 06 	lds	r24, 0x0608
    1646:	81 50       	subi	r24, 0x01	; 1
    1648:	80 93 08 06 	sts	0x0608, r24
    164c:	a9 cf       	rjmp	.-174    	; 0x15a0 <UserName_Set+0x48>
    164e:	80 91 08 06 	lds	r24, 0x0608
    1652:	86 30       	cpi	r24, 0x06	; 6
    1654:	08 f4       	brcc	.+2      	; 0x1658 <UserName_Set+0x100>
    1656:	90 cf       	rjmp	.-224    	; 0x1578 <UserName_Set+0x20>
    1658:	80 e1       	ldi	r24, 0x10	; 16
    165a:	90 e0       	ldi	r25, 0x00	; 0
    165c:	60 e0       	ldi	r22, 0x00	; 0
    165e:	0e 94 75 06 	call	0xcea	; 0xcea <EEPROM_vWrite>
    1662:	60 91 08 06 	lds	r22, 0x0608
    1666:	83 e1       	ldi	r24, 0x13	; 19
    1668:	90 e0       	ldi	r25, 0x00	; 0
    166a:	0e 94 75 06 	call	0xcea	; 0xcea <EEPROM_vWrite>
    166e:	08 95       	ret

00001670 <PassWord_Check>:
    1670:	0f 93       	push	r16
    1672:	1f 93       	push	r17
    1674:	8d ef       	ldi	r24, 0xFD	; 253
    1676:	90 e0       	ldi	r25, 0x00	; 0
    1678:	0e 94 a8 00 	call	0x150	; 0x150 <USART_u8SendStringSynch>
    167c:	8d e0       	ldi	r24, 0x0D	; 13
    167e:	0e 94 57 00 	call	0xae	; 0xae <USART_u8SendData>
    1682:	81 e0       	ldi	r24, 0x01	; 1
    1684:	80 93 9e 05 	sts	0x059E, r24
    1688:	10 e0       	ldi	r17, 0x00	; 0
    168a:	82 e2       	ldi	r24, 0x22	; 34
    168c:	96 e0       	ldi	r25, 0x06	; 6
    168e:	0e 94 7d 00 	call	0xfa	; 0xfa <USART_u8ReceiveData>
    1692:	80 93 9f 05 	sts	0x059F, r24
    1696:	80 91 9f 05 	lds	r24, 0x059F
    169a:	88 23       	and	r24, r24
    169c:	a1 f4       	brne	.+40     	; 0x16c6 <PassWord_Check+0x56>
    169e:	11 23       	and	r17, r17
    16a0:	91 f4       	brne	.+36     	; 0x16c6 <PassWord_Check+0x56>
    16a2:	80 91 22 06 	lds	r24, 0x0622
    16a6:	8d 30       	cpi	r24, 0x0D	; 13
    16a8:	81 f3       	breq	.-32     	; 0x168a <PassWord_Check+0x1a>
    16aa:	80 91 22 06 	lds	r24, 0x0622
    16ae:	8f 30       	cpi	r24, 0x0F	; 15
    16b0:	61 f3       	breq	.-40     	; 0x168a <PassWord_Check+0x1a>
    16b2:	80 91 22 06 	lds	r24, 0x0622
    16b6:	88 30       	cpi	r24, 0x08	; 8
    16b8:	41 f3       	breq	.-48     	; 0x168a <PassWord_Check+0x1a>
    16ba:	80 91 22 06 	lds	r24, 0x0622
    16be:	80 93 0d 06 	sts	0x060D, r24
    16c2:	11 e0       	ldi	r17, 0x01	; 1
    16c4:	e2 cf       	rjmp	.-60     	; 0x168a <PassWord_Check+0x1a>
    16c6:	80 91 9f 05 	lds	r24, 0x059F
    16ca:	88 23       	and	r24, r24
    16cc:	b9 f4       	brne	.+46     	; 0x16fc <PassWord_Check+0x8c>
    16ce:	14 31       	cpi	r17, 0x14	; 20
    16d0:	a8 f4       	brcc	.+42     	; 0x16fc <PassWord_Check+0x8c>
    16d2:	80 91 22 06 	lds	r24, 0x0622
    16d6:	8d 30       	cpi	r24, 0x0D	; 13
    16d8:	31 f1       	breq	.+76     	; 0x1726 <PassWord_Check+0xb6>
    16da:	80 91 22 06 	lds	r24, 0x0622
    16de:	8f 30       	cpi	r24, 0x0F	; 15
    16e0:	11 f1       	breq	.+68     	; 0x1726 <PassWord_Check+0xb6>
    16e2:	80 91 22 06 	lds	r24, 0x0622
    16e6:	88 30       	cpi	r24, 0x08	; 8
    16e8:	e1 f0       	breq	.+56     	; 0x1722 <PassWord_Check+0xb2>
    16ea:	e1 2f       	mov	r30, r17
    16ec:	f0 e0       	ldi	r31, 0x00	; 0
    16ee:	80 91 22 06 	lds	r24, 0x0622
    16f2:	e3 5f       	subi	r30, 0xF3	; 243
    16f4:	f9 4f       	sbci	r31, 0xF9	; 249
    16f6:	80 83       	st	Z, r24
    16f8:	1f 5f       	subi	r17, 0xFF	; 255
    16fa:	c7 cf       	rjmp	.-114    	; 0x168a <PassWord_Check+0x1a>
    16fc:	80 91 9f 05 	lds	r24, 0x059F
    1700:	88 23       	and	r24, r24
    1702:	19 f6       	brne	.-122    	; 0x168a <PassWord_Check+0x1a>
    1704:	14 31       	cpi	r17, 0x14	; 20
    1706:	08 f2       	brcs	.-126    	; 0x168a <PassWord_Check+0x1a>
    1708:	80 91 22 06 	lds	r24, 0x0622
    170c:	8d 30       	cpi	r24, 0x0D	; 13
    170e:	59 f0       	breq	.+22     	; 0x1726 <PassWord_Check+0xb6>
    1710:	80 91 22 06 	lds	r24, 0x0622
    1714:	8f 30       	cpi	r24, 0x0F	; 15
    1716:	39 f0       	breq	.+14     	; 0x1726 <PassWord_Check+0xb6>
    1718:	80 91 22 06 	lds	r24, 0x0622
    171c:	88 30       	cpi	r24, 0x08	; 8
    171e:	09 f0       	breq	.+2      	; 0x1722 <PassWord_Check+0xb2>
    1720:	b4 cf       	rjmp	.-152    	; 0x168a <PassWord_Check+0x1a>
    1722:	11 50       	subi	r17, 0x01	; 1
    1724:	b2 cf       	rjmp	.-156    	; 0x168a <PassWord_Check+0x1a>
    1726:	80 91 09 06 	lds	r24, 0x0609
    172a:	18 17       	cp	r17, r24
    172c:	d1 f4       	brne	.+52     	; 0x1762 <PassWord_Check+0xf2>
    172e:	00 e0       	ldi	r16, 0x00	; 0
    1730:	13 c0       	rjmp	.+38     	; 0x1758 <PassWord_Check+0xe8>
    1732:	20 2f       	mov	r18, r16
    1734:	30 e0       	ldi	r19, 0x00	; 0
    1736:	f9 01       	movw	r30, r18
    1738:	e3 5f       	subi	r30, 0xF3	; 243
    173a:	f9 4f       	sbci	r31, 0xF9	; 249
    173c:	80 81       	ld	r24, Z
    173e:	88 23       	and	r24, r24
    1740:	b1 f0       	breq	.+44     	; 0x176e <PassWord_Check+0xfe>
    1742:	10 81       	ld	r17, Z
    1744:	c9 01       	movw	r24, r18
    1746:	8f 5b       	subi	r24, 0xBF	; 191
    1748:	9f 4f       	sbci	r25, 0xFF	; 255
    174a:	0e 94 7d 06 	call	0xcfa	; 0xcfa <EEPROM_vRead>
    174e:	18 17       	cp	r17, r24
    1750:	11 f0       	breq	.+4      	; 0x1756 <PassWord_Check+0xe6>
    1752:	10 92 9e 05 	sts	0x059E, r1
    1756:	0f 5f       	subi	r16, 0xFF	; 255
    1758:	80 91 09 06 	lds	r24, 0x0609
    175c:	08 17       	cp	r16, r24
    175e:	48 f3       	brcs	.-46     	; 0x1732 <PassWord_Check+0xc2>
    1760:	06 c0       	rjmp	.+12     	; 0x176e <PassWord_Check+0xfe>
    1762:	80 91 09 06 	lds	r24, 0x0609
    1766:	18 17       	cp	r17, r24
    1768:	11 f0       	breq	.+4      	; 0x176e <PassWord_Check+0xfe>
    176a:	10 92 9e 05 	sts	0x059E, r1
    176e:	1f 91       	pop	r17
    1770:	0f 91       	pop	r16
    1772:	08 95       	ret

00001774 <UserName_Check>:
    1774:	0f 93       	push	r16
    1776:	1f 93       	push	r17
    1778:	8c e0       	ldi	r24, 0x0C	; 12
    177a:	91 e0       	ldi	r25, 0x01	; 1
    177c:	0e 94 a8 00 	call	0x150	; 0x150 <USART_u8SendStringSynch>
    1780:	8d e0       	ldi	r24, 0x0D	; 13
    1782:	0e 94 57 00 	call	0xae	; 0xae <USART_u8SendData>
    1786:	81 e0       	ldi	r24, 0x01	; 1
    1788:	80 93 9d 05 	sts	0x059D, r24
    178c:	10 e0       	ldi	r17, 0x00	; 0
    178e:	82 e2       	ldi	r24, 0x22	; 34
    1790:	96 e0       	ldi	r25, 0x06	; 6
    1792:	0e 94 7d 00 	call	0xfa	; 0xfa <USART_u8ReceiveData>
    1796:	80 93 9f 05 	sts	0x059F, r24
    179a:	80 91 9f 05 	lds	r24, 0x059F
    179e:	88 23       	and	r24, r24
    17a0:	a1 f4       	brne	.+40     	; 0x17ca <UserName_Check+0x56>
    17a2:	11 23       	and	r17, r17
    17a4:	91 f4       	brne	.+36     	; 0x17ca <UserName_Check+0x56>
    17a6:	80 91 22 06 	lds	r24, 0x0622
    17aa:	8d 30       	cpi	r24, 0x0D	; 13
    17ac:	81 f3       	breq	.-32     	; 0x178e <UserName_Check+0x1a>
    17ae:	80 91 22 06 	lds	r24, 0x0622
    17b2:	8f 30       	cpi	r24, 0x0F	; 15
    17b4:	61 f3       	breq	.-40     	; 0x178e <UserName_Check+0x1a>
    17b6:	80 91 22 06 	lds	r24, 0x0622
    17ba:	88 30       	cpi	r24, 0x08	; 8
    17bc:	41 f3       	breq	.-48     	; 0x178e <UserName_Check+0x1a>
    17be:	80 91 22 06 	lds	r24, 0x0622
    17c2:	80 93 0d 06 	sts	0x060D, r24
    17c6:	11 e0       	ldi	r17, 0x01	; 1
    17c8:	e2 cf       	rjmp	.-60     	; 0x178e <UserName_Check+0x1a>
    17ca:	80 91 9f 05 	lds	r24, 0x059F
    17ce:	88 23       	and	r24, r24
    17d0:	b9 f4       	brne	.+46     	; 0x1800 <UserName_Check+0x8c>
    17d2:	14 31       	cpi	r17, 0x14	; 20
    17d4:	a8 f4       	brcc	.+42     	; 0x1800 <UserName_Check+0x8c>
    17d6:	80 91 22 06 	lds	r24, 0x0622
    17da:	8d 30       	cpi	r24, 0x0D	; 13
    17dc:	31 f1       	breq	.+76     	; 0x182a <UserName_Check+0xb6>
    17de:	80 91 22 06 	lds	r24, 0x0622
    17e2:	8f 30       	cpi	r24, 0x0F	; 15
    17e4:	11 f1       	breq	.+68     	; 0x182a <UserName_Check+0xb6>
    17e6:	80 91 22 06 	lds	r24, 0x0622
    17ea:	88 30       	cpi	r24, 0x08	; 8
    17ec:	e1 f0       	breq	.+56     	; 0x1826 <UserName_Check+0xb2>
    17ee:	e1 2f       	mov	r30, r17
    17f0:	f0 e0       	ldi	r31, 0x00	; 0
    17f2:	80 91 22 06 	lds	r24, 0x0622
    17f6:	e3 5f       	subi	r30, 0xF3	; 243
    17f8:	f9 4f       	sbci	r31, 0xF9	; 249
    17fa:	80 83       	st	Z, r24
    17fc:	1f 5f       	subi	r17, 0xFF	; 255
    17fe:	c7 cf       	rjmp	.-114    	; 0x178e <UserName_Check+0x1a>
    1800:	80 91 9f 05 	lds	r24, 0x059F
    1804:	88 23       	and	r24, r24
    1806:	19 f6       	brne	.-122    	; 0x178e <UserName_Check+0x1a>
    1808:	14 31       	cpi	r17, 0x14	; 20
    180a:	08 f2       	brcs	.-126    	; 0x178e <UserName_Check+0x1a>
    180c:	80 91 22 06 	lds	r24, 0x0622
    1810:	8d 30       	cpi	r24, 0x0D	; 13
    1812:	59 f0       	breq	.+22     	; 0x182a <UserName_Check+0xb6>
    1814:	80 91 22 06 	lds	r24, 0x0622
    1818:	8f 30       	cpi	r24, 0x0F	; 15
    181a:	39 f0       	breq	.+14     	; 0x182a <UserName_Check+0xb6>
    181c:	80 91 22 06 	lds	r24, 0x0622
    1820:	88 30       	cpi	r24, 0x08	; 8
    1822:	09 f0       	breq	.+2      	; 0x1826 <UserName_Check+0xb2>
    1824:	b4 cf       	rjmp	.-152    	; 0x178e <UserName_Check+0x1a>
    1826:	11 50       	subi	r17, 0x01	; 1
    1828:	b2 cf       	rjmp	.-156    	; 0x178e <UserName_Check+0x1a>
    182a:	80 91 08 06 	lds	r24, 0x0608
    182e:	18 17       	cp	r17, r24
    1830:	c9 f4       	brne	.+50     	; 0x1864 <UserName_Check+0xf0>
    1832:	00 e0       	ldi	r16, 0x00	; 0
    1834:	12 c0       	rjmp	.+36     	; 0x185a <UserName_Check+0xe6>
    1836:	20 2f       	mov	r18, r16
    1838:	30 e0       	ldi	r19, 0x00	; 0
    183a:	f9 01       	movw	r30, r18
    183c:	e3 5f       	subi	r30, 0xF3	; 243
    183e:	f9 4f       	sbci	r31, 0xF9	; 249
    1840:	80 81       	ld	r24, Z
    1842:	88 23       	and	r24, r24
    1844:	a9 f0       	breq	.+42     	; 0x1870 <UserName_Check+0xfc>
    1846:	10 81       	ld	r17, Z
    1848:	c9 01       	movw	r24, r18
    184a:	81 96       	adiw	r24, 0x21	; 33
    184c:	0e 94 7d 06 	call	0xcfa	; 0xcfa <EEPROM_vRead>
    1850:	18 17       	cp	r17, r24
    1852:	11 f0       	breq	.+4      	; 0x1858 <UserName_Check+0xe4>
    1854:	10 92 9d 05 	sts	0x059D, r1
    1858:	0f 5f       	subi	r16, 0xFF	; 255
    185a:	80 91 09 06 	lds	r24, 0x0609
    185e:	80 17       	cp	r24, r16
    1860:	50 f7       	brcc	.-44     	; 0x1836 <UserName_Check+0xc2>
    1862:	06 c0       	rjmp	.+12     	; 0x1870 <UserName_Check+0xfc>
    1864:	80 91 08 06 	lds	r24, 0x0608
    1868:	18 17       	cp	r17, r24
    186a:	11 f0       	breq	.+4      	; 0x1870 <UserName_Check+0xfc>
    186c:	10 92 9d 05 	sts	0x059D, r1
    1870:	1f 91       	pop	r17
    1872:	0f 91       	pop	r16
    1874:	08 95       	ret

00001876 <Sign_In>:
    1876:	0e 94 ba 0b 	call	0x1774	; 0x1774 <UserName_Check>
    187a:	0e 94 38 0b 	call	0x1670	; 0x1670 <PassWord_Check>
    187e:	80 91 9d 05 	lds	r24, 0x059D
    1882:	88 23       	and	r24, r24
    1884:	21 f0       	breq	.+8      	; 0x188e <Sign_In+0x18>
    1886:	80 91 9e 05 	lds	r24, 0x059E
    188a:	88 23       	and	r24, r24
    188c:	b1 f5       	brne	.+108    	; 0x18fa <Sign_In+0x84>
    188e:	8b e1       	ldi	r24, 0x1B	; 27
    1890:	91 e0       	ldi	r25, 0x01	; 1
    1892:	0e 94 a8 00 	call	0x150	; 0x150 <USART_u8SendStringSynch>
    1896:	8d e0       	ldi	r24, 0x0D	; 13
    1898:	0e 94 57 00 	call	0xae	; 0xae <USART_u8SendData>
    189c:	80 91 9c 05 	lds	r24, 0x059C
    18a0:	81 50       	subi	r24, 0x01	; 1
    18a2:	80 93 9c 05 	sts	0x059C, r24
    18a6:	60 91 9c 05 	lds	r22, 0x059C
    18aa:	82 e1       	ldi	r24, 0x12	; 18
    18ac:	90 e0       	ldi	r25, 0x00	; 0
    18ae:	0e 94 75 06 	call	0xcea	; 0xcea <EEPROM_vWrite>
    18b2:	80 91 9c 05 	lds	r24, 0x059C
    18b6:	88 23       	and	r24, r24
    18b8:	69 f0       	breq	.+26     	; 0x18d4 <Sign_In+0x5e>
    18ba:	88 e3       	ldi	r24, 0x38	; 56
    18bc:	91 e0       	ldi	r25, 0x01	; 1
    18be:	0e 94 a8 00 	call	0x150	; 0x150 <USART_u8SendStringSynch>
    18c2:	80 91 9c 05 	lds	r24, 0x059C
    18c6:	80 5d       	subi	r24, 0xD0	; 208
    18c8:	0e 94 57 00 	call	0xae	; 0xae <USART_u8SendData>
    18cc:	8d e0       	ldi	r24, 0x0D	; 13
    18ce:	0e 94 57 00 	call	0xae	; 0xae <USART_u8SendData>
    18d2:	d1 cf       	rjmp	.-94     	; 0x1876 <Sign_In>
    18d4:	80 91 9c 05 	lds	r24, 0x059C
    18d8:	88 23       	and	r24, r24
    18da:	69 f6       	brne	.-102    	; 0x1876 <Sign_In>
    18dc:	88 e3       	ldi	r24, 0x38	; 56
    18de:	91 e0       	ldi	r25, 0x01	; 1
    18e0:	0e 94 a8 00 	call	0x150	; 0x150 <USART_u8SendStringSynch>
    18e4:	80 91 9c 05 	lds	r24, 0x059C
    18e8:	80 5d       	subi	r24, 0xD0	; 208
    18ea:	0e 94 57 00 	call	0xae	; 0xae <USART_u8SendData>
    18ee:	8d e0       	ldi	r24, 0x0D	; 13
    18f0:	0e 94 57 00 	call	0xae	; 0xae <USART_u8SendData>
    18f4:	0e 94 ee 09 	call	0x13dc	; 0x13dc <Error_TimeOut>
    18f8:	be cf       	rjmp	.-132    	; 0x1876 <Sign_In>
    18fa:	86 e4       	ldi	r24, 0x46	; 70
    18fc:	91 e0       	ldi	r25, 0x01	; 1
    18fe:	0e 94 a8 00 	call	0x150	; 0x150 <USART_u8SendStringSynch>
    1902:	82 e1       	ldi	r24, 0x12	; 18
    1904:	90 e0       	ldi	r25, 0x00	; 0
    1906:	6f ef       	ldi	r22, 0xFF	; 255
    1908:	0e 94 75 06 	call	0xcea	; 0xcea <EEPROM_vWrite>
    190c:	83 e0       	ldi	r24, 0x03	; 3
    190e:	80 93 9c 05 	sts	0x059C, r24
    1912:	8d e0       	ldi	r24, 0x0D	; 13
    1914:	0e 94 57 00 	call	0xae	; 0xae <USART_u8SendData>
    1918:	08 95       	ret

0000191a <EEPROM_vInit>:
    191a:	ff 92       	push	r15
    191c:	0f 93       	push	r16
    191e:	1f 93       	push	r17
    1920:	83 e1       	ldi	r24, 0x13	; 19
    1922:	90 e0       	ldi	r25, 0x00	; 0
    1924:	0e 94 7d 06 	call	0xcfa	; 0xcfa <EEPROM_vRead>
    1928:	80 93 08 06 	sts	0x0608, r24
    192c:	84 e1       	ldi	r24, 0x14	; 20
    192e:	90 e0       	ldi	r25, 0x00	; 0
    1930:	0e 94 7d 06 	call	0xcfa	; 0xcfa <EEPROM_vRead>
    1934:	80 93 09 06 	sts	0x0609, r24
    1938:	82 e1       	ldi	r24, 0x12	; 18
    193a:	90 e0       	ldi	r25, 0x00	; 0
    193c:	0e 94 7d 06 	call	0xcfa	; 0xcfa <EEPROM_vRead>
    1940:	8f 3f       	cpi	r24, 0xFF	; 255
    1942:	31 f0       	breq	.+12     	; 0x1950 <EEPROM_vInit+0x36>
    1944:	82 e1       	ldi	r24, 0x12	; 18
    1946:	90 e0       	ldi	r25, 0x00	; 0
    1948:	0e 94 7d 06 	call	0xcfa	; 0xcfa <EEPROM_vRead>
    194c:	80 93 9c 05 	sts	0x059C, r24
    1950:	80 e1       	ldi	r24, 0x10	; 16
    1952:	90 e0       	ldi	r25, 0x00	; 0
    1954:	0e 94 7d 06 	call	0xcfa	; 0xcfa <EEPROM_vRead>
    1958:	8f 3f       	cpi	r24, 0xFF	; 255
    195a:	49 f4       	brne	.+18     	; 0x196e <EEPROM_vInit+0x54>
    195c:	8b e5       	ldi	r24, 0x5B	; 91
    195e:	91 e0       	ldi	r25, 0x01	; 1
    1960:	0e 94 a8 00 	call	0x150	; 0x150 <USART_u8SendStringSynch>
    1964:	8d e0       	ldi	r24, 0x0D	; 13
    1966:	0e 94 57 00 	call	0xae	; 0xae <USART_u8SendData>
    196a:	0e 94 ac 0a 	call	0x1558	; 0x1558 <UserName_Set>
    196e:	81 e1       	ldi	r24, 0x11	; 17
    1970:	90 e0       	ldi	r25, 0x00	; 0
    1972:	0e 94 7d 06 	call	0xcfa	; 0xcfa <EEPROM_vRead>
    1976:	8f 3f       	cpi	r24, 0xFF	; 255
    1978:	49 f4       	brne	.+18     	; 0x198c <EEPROM_vInit+0x72>
    197a:	0e 94 17 0a 	call	0x142e	; 0x142e <PassWord_Set>
    197e:	8a e6       	ldi	r24, 0x6A	; 106
    1980:	91 e0       	ldi	r25, 0x01	; 1
    1982:	0e 94 a8 00 	call	0x150	; 0x150 <USART_u8SendStringSynch>
    1986:	8d e0       	ldi	r24, 0x0D	; 13
    1988:	0e 94 57 00 	call	0xae	; 0xae <USART_u8SendData>
    198c:	80 91 9c 05 	lds	r24, 0x059C
    1990:	88 23       	and	r24, r24
    1992:	11 f4       	brne	.+4      	; 0x1998 <EEPROM_vInit+0x7e>
    1994:	0e 94 ee 09 	call	0x13dc	; 0x13dc <Error_TimeOut>
    1998:	ff 24       	eor	r15, r15
    199a:	0b c0       	rjmp	.+22     	; 0x19b2 <EEPROM_vInit+0x98>
    199c:	0f 2d       	mov	r16, r15
    199e:	10 e0       	ldi	r17, 0x00	; 0
    19a0:	c8 01       	movw	r24, r16
    19a2:	81 96       	adiw	r24, 0x21	; 33
    19a4:	0e 94 7d 06 	call	0xcfa	; 0xcfa <EEPROM_vRead>
    19a8:	0d 5d       	subi	r16, 0xDD	; 221
    19aa:	19 4f       	sbci	r17, 0xF9	; 249
    19ac:	f8 01       	movw	r30, r16
    19ae:	80 83       	st	Z, r24
    19b0:	f3 94       	inc	r15
    19b2:	80 91 08 06 	lds	r24, 0x0608
    19b6:	f8 16       	cp	r15, r24
    19b8:	88 f3       	brcs	.-30     	; 0x199c <EEPROM_vInit+0x82>
    19ba:	1f 91       	pop	r17
    19bc:	0f 91       	pop	r16
    19be:	ff 90       	pop	r15
    19c0:	08 95       	ret

000019c2 <ISR_EXTI_Interrupt>:
    19c2:	60 91 a0 05 	lds	r22, 0x05A0
    19c6:	70 91 a1 05 	lds	r23, 0x05A1
    19ca:	80 91 a2 05 	lds	r24, 0x05A2
    19ce:	0e 94 8d 09 	call	0x131a	; 0x131a <LED_vTog>
    19d2:	60 91 a3 05 	lds	r22, 0x05A3
    19d6:	70 91 a4 05 	lds	r23, 0x05A4
    19da:	80 91 a5 05 	lds	r24, 0x05A5
    19de:	0e 94 8d 09 	call	0x131a	; 0x131a <LED_vTog>
    19e2:	60 91 a6 05 	lds	r22, 0x05A6
    19e6:	70 91 a7 05 	lds	r23, 0x05A7
    19ea:	80 91 a8 05 	lds	r24, 0x05A8
    19ee:	0e 94 8d 09 	call	0x131a	; 0x131a <LED_vTog>
    19f2:	60 91 a9 05 	lds	r22, 0x05A9
    19f6:	70 91 aa 05 	lds	r23, 0x05AA
    19fa:	80 91 ab 05 	lds	r24, 0x05AB
    19fe:	0e 94 8d 09 	call	0x131a	; 0x131a <LED_vTog>
    1a02:	60 91 ac 05 	lds	r22, 0x05AC
    1a06:	70 91 ad 05 	lds	r23, 0x05AD
    1a0a:	80 91 ae 05 	lds	r24, 0x05AE
    1a0e:	0e 94 8d 09 	call	0x131a	; 0x131a <LED_vTog>
    1a12:	60 91 af 05 	lds	r22, 0x05AF
    1a16:	70 91 b0 05 	lds	r23, 0x05B0
    1a1a:	80 91 b1 05 	lds	r24, 0x05B1
    1a1e:	0e 94 8d 09 	call	0x131a	; 0x131a <LED_vTog>
    1a22:	60 91 b2 05 	lds	r22, 0x05B2
    1a26:	70 91 b3 05 	lds	r23, 0x05B3
    1a2a:	80 91 b4 05 	lds	r24, 0x05B4
    1a2e:	0e 94 8d 09 	call	0x131a	; 0x131a <LED_vTog>
    1a32:	60 91 b5 05 	lds	r22, 0x05B5
    1a36:	70 91 b6 05 	lds	r23, 0x05B6
    1a3a:	80 91 b7 05 	lds	r24, 0x05B7
    1a3e:	0e 94 8d 09 	call	0x131a	; 0x131a <LED_vTog>
    1a42:	60 91 b8 05 	lds	r22, 0x05B8
    1a46:	70 91 b9 05 	lds	r23, 0x05B9
    1a4a:	80 91 ba 05 	lds	r24, 0x05BA
    1a4e:	0e 94 8d 09 	call	0x131a	; 0x131a <LED_vTog>
    1a52:	60 91 bb 05 	lds	r22, 0x05BB
    1a56:	70 91 bc 05 	lds	r23, 0x05BC
    1a5a:	80 91 bd 05 	lds	r24, 0x05BD
    1a5e:	0e 94 8d 09 	call	0x131a	; 0x131a <LED_vTog>
    1a62:	60 91 be 05 	lds	r22, 0x05BE
    1a66:	70 91 bf 05 	lds	r23, 0x05BF
    1a6a:	80 91 c0 05 	lds	r24, 0x05C0
    1a6e:	0e 94 8d 09 	call	0x131a	; 0x131a <LED_vTog>
    1a72:	60 91 c1 05 	lds	r22, 0x05C1
    1a76:	70 91 c2 05 	lds	r23, 0x05C2
    1a7a:	80 91 c3 05 	lds	r24, 0x05C3
    1a7e:	0e 94 8d 09 	call	0x131a	; 0x131a <LED_vTog>
    1a82:	60 91 c4 05 	lds	r22, 0x05C4
    1a86:	70 91 c5 05 	lds	r23, 0x05C5
    1a8a:	80 91 c6 05 	lds	r24, 0x05C6
    1a8e:	0e 94 8d 09 	call	0x131a	; 0x131a <LED_vTog>
    1a92:	60 91 c7 05 	lds	r22, 0x05C7
    1a96:	70 91 c8 05 	lds	r23, 0x05C8
    1a9a:	80 91 c9 05 	lds	r24, 0x05C9
    1a9e:	0e 94 8d 09 	call	0x131a	; 0x131a <LED_vTog>
    1aa2:	60 91 ca 05 	lds	r22, 0x05CA
    1aa6:	70 91 cb 05 	lds	r23, 0x05CB
    1aaa:	80 91 cc 05 	lds	r24, 0x05CC
    1aae:	0e 94 8d 09 	call	0x131a	; 0x131a <LED_vTog>
    1ab2:	60 91 cd 05 	lds	r22, 0x05CD
    1ab6:	70 91 ce 05 	lds	r23, 0x05CE
    1aba:	80 91 cf 05 	lds	r24, 0x05CF
    1abe:	0e 94 8d 09 	call	0x131a	; 0x131a <LED_vTog>
    1ac2:	60 91 d0 05 	lds	r22, 0x05D0
    1ac6:	70 91 d1 05 	lds	r23, 0x05D1
    1aca:	80 91 d2 05 	lds	r24, 0x05D2
    1ace:	0e 94 8d 09 	call	0x131a	; 0x131a <LED_vTog>
    1ad2:	60 91 d3 05 	lds	r22, 0x05D3
    1ad6:	70 91 d4 05 	lds	r23, 0x05D4
    1ada:	80 91 d5 05 	lds	r24, 0x05D5
    1ade:	0e 94 8d 09 	call	0x131a	; 0x131a <LED_vTog>
    1ae2:	60 91 d6 05 	lds	r22, 0x05D6
    1ae6:	70 91 d7 05 	lds	r23, 0x05D7
    1aea:	80 91 d8 05 	lds	r24, 0x05D8
    1aee:	0e 94 8d 09 	call	0x131a	; 0x131a <LED_vTog>
    1af2:	60 91 d9 05 	lds	r22, 0x05D9
    1af6:	70 91 da 05 	lds	r23, 0x05DA
    1afa:	80 91 db 05 	lds	r24, 0x05DB
    1afe:	0e 94 8d 09 	call	0x131a	; 0x131a <LED_vTog>
    1b02:	60 91 dc 05 	lds	r22, 0x05DC
    1b06:	70 91 dd 05 	lds	r23, 0x05DD
    1b0a:	80 91 de 05 	lds	r24, 0x05DE
    1b0e:	0e 94 8d 09 	call	0x131a	; 0x131a <LED_vTog>
    1b12:	08 95       	ret

00001b14 <Home_vBalacon>:
    1b14:	8d e7       	ldi	r24, 0x7D	; 125
    1b16:	91 e0       	ldi	r25, 0x01	; 1
    1b18:	0e 94 a8 00 	call	0x150	; 0x150 <USART_u8SendStringSynch>
    1b1c:	8d e0       	ldi	r24, 0x0D	; 13
    1b1e:	0e 94 57 00 	call	0xae	; 0xae <USART_u8SendData>
    1b22:	80 e9       	ldi	r24, 0x90	; 144
    1b24:	91 e0       	ldi	r25, 0x01	; 1
    1b26:	0e 94 a8 00 	call	0x150	; 0x150 <USART_u8SendStringSynch>
    1b2a:	86 ea       	ldi	r24, 0xA6	; 166
    1b2c:	91 e0       	ldi	r25, 0x01	; 1
    1b2e:	0e 94 a8 00 	call	0x150	; 0x150 <USART_u8SendStringSynch>
    1b32:	8d e0       	ldi	r24, 0x0D	; 13
    1b34:	0e 94 57 00 	call	0xae	; 0xae <USART_u8SendData>
    1b38:	85 eb       	ldi	r24, 0xB5	; 181
    1b3a:	91 e0       	ldi	r25, 0x01	; 1
    1b3c:	0e 94 a8 00 	call	0x150	; 0x150 <USART_u8SendStringSynch>
    1b40:	8b ec       	ldi	r24, 0xCB	; 203
    1b42:	91 e0       	ldi	r25, 0x01	; 1
    1b44:	0e 94 a8 00 	call	0x150	; 0x150 <USART_u8SendStringSynch>
    1b48:	8d e0       	ldi	r24, 0x0D	; 13
    1b4a:	0e 94 57 00 	call	0xae	; 0xae <USART_u8SendData>
    1b4e:	82 e2       	ldi	r24, 0x22	; 34
    1b50:	96 e0       	ldi	r25, 0x06	; 6
    1b52:	0e 94 7d 00 	call	0xfa	; 0xfa <USART_u8ReceiveData>
    1b56:	80 93 9f 05 	sts	0x059F, r24
    1b5a:	80 91 9f 05 	lds	r24, 0x059F
    1b5e:	88 23       	and	r24, r24
    1b60:	a1 f5       	brne	.+104    	; 0x1bca <Home_vBalacon+0xb6>
    1b62:	80 91 22 06 	lds	r24, 0x0622
    1b66:	82 33       	cpi	r24, 0x32	; 50
    1b68:	a9 f0       	breq	.+42     	; 0x1b94 <Home_vBalacon+0x80>
    1b6a:	83 33       	cpi	r24, 0x33	; 51
    1b6c:	30 f4       	brcc	.+12     	; 0x1b7a <Home_vBalacon+0x66>
    1b6e:	88 30       	cpi	r24, 0x08	; 8
    1b70:	41 f1       	breq	.+80     	; 0x1bc2 <Home_vBalacon+0xae>
    1b72:	81 33       	cpi	r24, 0x31	; 49
    1b74:	09 f0       	breq	.+2      	; 0x1b78 <Home_vBalacon+0x64>
    1b76:	4f c0       	rjmp	.+158    	; 0x1c16 <Home_vBalacon+0x102>
    1b78:	06 c0       	rjmp	.+12     	; 0x1b86 <Home_vBalacon+0x72>
    1b7a:	83 33       	cpi	r24, 0x33	; 51
    1b7c:	91 f0       	breq	.+36     	; 0x1ba2 <Home_vBalacon+0x8e>
    1b7e:	84 33       	cpi	r24, 0x34	; 52
    1b80:	09 f0       	breq	.+2      	; 0x1b84 <Home_vBalacon+0x70>
    1b82:	49 c0       	rjmp	.+146    	; 0x1c16 <Home_vBalacon+0x102>
    1b84:	15 c0       	rjmp	.+42     	; 0x1bb0 <Home_vBalacon+0x9c>
    1b86:	60 91 b8 05 	lds	r22, 0x05B8
    1b8a:	70 91 b9 05 	lds	r23, 0x05B9
    1b8e:	80 91 ba 05 	lds	r24, 0x05BA
    1b92:	14 c0       	rjmp	.+40     	; 0x1bbc <Home_vBalacon+0xa8>
    1b94:	60 91 bb 05 	lds	r22, 0x05BB
    1b98:	70 91 bc 05 	lds	r23, 0x05BC
    1b9c:	80 91 bd 05 	lds	r24, 0x05BD
    1ba0:	0d c0       	rjmp	.+26     	; 0x1bbc <Home_vBalacon+0xa8>
    1ba2:	60 91 be 05 	lds	r22, 0x05BE
    1ba6:	70 91 bf 05 	lds	r23, 0x05BF
    1baa:	80 91 c0 05 	lds	r24, 0x05C0
    1bae:	06 c0       	rjmp	.+12     	; 0x1bbc <Home_vBalacon+0xa8>
    1bb0:	60 91 c1 05 	lds	r22, 0x05C1
    1bb4:	70 91 c2 05 	lds	r23, 0x05C2
    1bb8:	80 91 c3 05 	lds	r24, 0x05C3
    1bbc:	0e 94 8d 09 	call	0x131a	; 0x131a <LED_vTog>
    1bc0:	2a c0       	rjmp	.+84     	; 0x1c16 <Home_vBalacon+0x102>
    1bc2:	8d e0       	ldi	r24, 0x0D	; 13
    1bc4:	0e 94 57 00 	call	0xae	; 0xae <USART_u8SendData>
    1bc8:	26 c0       	rjmp	.+76     	; 0x1c16 <Home_vBalacon+0x102>
    1bca:	80 91 9f 05 	lds	r24, 0x059F
    1bce:	84 30       	cpi	r24, 0x04	; 4
    1bd0:	11 f5       	brne	.+68     	; 0x1c16 <Home_vBalacon+0x102>
    1bd2:	80 91 0c 06 	lds	r24, 0x060C
    1bd6:	84 36       	cpi	r24, 0x64	; 100
    1bd8:	c9 f4       	brne	.+50     	; 0x1c0c <Home_vBalacon+0xf8>
    1bda:	8d e0       	ldi	r24, 0x0D	; 13
    1bdc:	0e 94 57 00 	call	0xae	; 0xae <USART_u8SendData>
    1be0:	80 91 df 05 	lds	r24, 0x05DF
    1be4:	81 ff       	sbrs	r24, 1
    1be6:	09 c0       	rjmp	.+18     	; 0x1bfa <Home_vBalacon+0xe6>
    1be8:	8a ed       	ldi	r24, 0xDA	; 218
    1bea:	91 e0       	ldi	r25, 0x01	; 1
    1bec:	0e 94 a8 00 	call	0x150	; 0x150 <USART_u8SendStringSynch>
    1bf0:	80 91 df 05 	lds	r24, 0x05DF
    1bf4:	8d 7f       	andi	r24, 0xFD	; 253
    1bf6:	80 93 df 05 	sts	0x05DF, r24
    1bfa:	8d e0       	ldi	r24, 0x0D	; 13
    1bfc:	0e 94 57 00 	call	0xae	; 0xae <USART_u8SendData>
    1c00:	80 91 df 05 	lds	r24, 0x05DF
    1c04:	81 60       	ori	r24, 0x01	; 1
    1c06:	80 93 df 05 	sts	0x05DF, r24
    1c0a:	08 95       	ret
    1c0c:	80 91 0c 06 	lds	r24, 0x060C
    1c10:	8f 5f       	subi	r24, 0xFF	; 255
    1c12:	80 93 0c 06 	sts	0x060C, r24
    1c16:	80 91 22 06 	lds	r24, 0x0622
    1c1a:	88 30       	cpi	r24, 0x08	; 8
    1c1c:	09 f0       	breq	.+2      	; 0x1c20 <Home_vBalacon+0x10c>
    1c1e:	97 cf       	rjmp	.-210    	; 0x1b4e <Home_vBalacon+0x3a>
    1c20:	08 95       	ret

00001c22 <Home_vCorridor>:
    1c22:	8b ee       	ldi	r24, 0xEB	; 235
    1c24:	91 e0       	ldi	r25, 0x01	; 1
    1c26:	0e 94 a8 00 	call	0x150	; 0x150 <USART_u8SendStringSynch>
    1c2a:	8d e0       	ldi	r24, 0x0D	; 13
    1c2c:	0e 94 57 00 	call	0xae	; 0xae <USART_u8SendData>
    1c30:	80 e9       	ldi	r24, 0x90	; 144
    1c32:	91 e0       	ldi	r25, 0x01	; 1
    1c34:	0e 94 a8 00 	call	0x150	; 0x150 <USART_u8SendStringSynch>
    1c38:	86 ea       	ldi	r24, 0xA6	; 166
    1c3a:	91 e0       	ldi	r25, 0x01	; 1
    1c3c:	0e 94 a8 00 	call	0x150	; 0x150 <USART_u8SendStringSynch>
    1c40:	8d e0       	ldi	r24, 0x0D	; 13
    1c42:	0e 94 57 00 	call	0xae	; 0xae <USART_u8SendData>
    1c46:	82 e2       	ldi	r24, 0x22	; 34
    1c48:	96 e0       	ldi	r25, 0x06	; 6
    1c4a:	0e 94 7d 00 	call	0xfa	; 0xfa <USART_u8ReceiveData>
    1c4e:	80 93 9f 05 	sts	0x059F, r24
    1c52:	80 91 9f 05 	lds	r24, 0x059F
    1c56:	88 23       	and	r24, r24
    1c58:	e9 f4       	brne	.+58     	; 0x1c94 <Home_vCorridor+0x72>
    1c5a:	80 91 22 06 	lds	r24, 0x0622
    1c5e:	81 33       	cpi	r24, 0x31	; 49
    1c60:	29 f0       	breq	.+10     	; 0x1c6c <Home_vCorridor+0x4a>
    1c62:	82 33       	cpi	r24, 0x32	; 50
    1c64:	51 f0       	breq	.+20     	; 0x1c7a <Home_vCorridor+0x58>
    1c66:	88 30       	cpi	r24, 0x08	; 8
    1c68:	d9 f5       	brne	.+118    	; 0x1ce0 <Home_vCorridor+0xbe>
    1c6a:	10 c0       	rjmp	.+32     	; 0x1c8c <Home_vCorridor+0x6a>
    1c6c:	60 91 af 05 	lds	r22, 0x05AF
    1c70:	70 91 b0 05 	lds	r23, 0x05B0
    1c74:	80 91 b1 05 	lds	r24, 0x05B1
    1c78:	06 c0       	rjmp	.+12     	; 0x1c86 <Home_vCorridor+0x64>
    1c7a:	60 91 b2 05 	lds	r22, 0x05B2
    1c7e:	70 91 b3 05 	lds	r23, 0x05B3
    1c82:	80 91 b4 05 	lds	r24, 0x05B4
    1c86:	0e 94 8d 09 	call	0x131a	; 0x131a <LED_vTog>
    1c8a:	2a c0       	rjmp	.+84     	; 0x1ce0 <Home_vCorridor+0xbe>
    1c8c:	8d e0       	ldi	r24, 0x0D	; 13
    1c8e:	0e 94 57 00 	call	0xae	; 0xae <USART_u8SendData>
    1c92:	26 c0       	rjmp	.+76     	; 0x1ce0 <Home_vCorridor+0xbe>
    1c94:	80 91 9f 05 	lds	r24, 0x059F
    1c98:	84 30       	cpi	r24, 0x04	; 4
    1c9a:	11 f5       	brne	.+68     	; 0x1ce0 <Home_vCorridor+0xbe>
    1c9c:	80 91 0c 06 	lds	r24, 0x060C
    1ca0:	84 36       	cpi	r24, 0x64	; 100
    1ca2:	c9 f4       	brne	.+50     	; 0x1cd6 <Home_vCorridor+0xb4>
    1ca4:	8d e0       	ldi	r24, 0x0D	; 13
    1ca6:	0e 94 57 00 	call	0xae	; 0xae <USART_u8SendData>
    1caa:	80 91 df 05 	lds	r24, 0x05DF
    1cae:	81 ff       	sbrs	r24, 1
    1cb0:	09 c0       	rjmp	.+18     	; 0x1cc4 <Home_vCorridor+0xa2>
    1cb2:	8a ed       	ldi	r24, 0xDA	; 218
    1cb4:	91 e0       	ldi	r25, 0x01	; 1
    1cb6:	0e 94 a8 00 	call	0x150	; 0x150 <USART_u8SendStringSynch>
    1cba:	80 91 df 05 	lds	r24, 0x05DF
    1cbe:	8d 7f       	andi	r24, 0xFD	; 253
    1cc0:	80 93 df 05 	sts	0x05DF, r24
    1cc4:	8d e0       	ldi	r24, 0x0D	; 13
    1cc6:	0e 94 57 00 	call	0xae	; 0xae <USART_u8SendData>
    1cca:	80 91 df 05 	lds	r24, 0x05DF
    1cce:	81 60       	ori	r24, 0x01	; 1
    1cd0:	80 93 df 05 	sts	0x05DF, r24
    1cd4:	08 95       	ret
    1cd6:	80 91 0c 06 	lds	r24, 0x060C
    1cda:	8f 5f       	subi	r24, 0xFF	; 255
    1cdc:	80 93 0c 06 	sts	0x060C, r24
    1ce0:	80 91 22 06 	lds	r24, 0x0622
    1ce4:	88 30       	cpi	r24, 0x08	; 8
    1ce6:	09 f0       	breq	.+2      	; 0x1cea <Home_vCorridor+0xc8>
    1ce8:	ae cf       	rjmp	.-164    	; 0x1c46 <Home_vCorridor+0x24>
    1cea:	08 95       	ret

00001cec <Home_vBath_Room>:
    1cec:	8f ef       	ldi	r24, 0xFF	; 255
    1cee:	91 e0       	ldi	r25, 0x01	; 1
    1cf0:	0e 94 a8 00 	call	0x150	; 0x150 <USART_u8SendStringSynch>
    1cf4:	8d e0       	ldi	r24, 0x0D	; 13
    1cf6:	0e 94 57 00 	call	0xae	; 0xae <USART_u8SendData>
    1cfa:	84 e1       	ldi	r24, 0x14	; 20
    1cfc:	92 e0       	ldi	r25, 0x02	; 2
    1cfe:	0e 94 a8 00 	call	0x150	; 0x150 <USART_u8SendStringSynch>
    1d02:	8d e0       	ldi	r24, 0x0D	; 13
    1d04:	0e 94 57 00 	call	0xae	; 0xae <USART_u8SendData>
    1d08:	82 e2       	ldi	r24, 0x22	; 34
    1d0a:	96 e0       	ldi	r25, 0x06	; 6
    1d0c:	0e 94 7d 00 	call	0xfa	; 0xfa <USART_u8ReceiveData>
    1d10:	80 93 9f 05 	sts	0x059F, r24
    1d14:	80 91 9f 05 	lds	r24, 0x059F
    1d18:	88 23       	and	r24, r24
    1d1a:	99 f4       	brne	.+38     	; 0x1d42 <Home_vBath_Room+0x56>
    1d1c:	80 91 22 06 	lds	r24, 0x0622
    1d20:	88 30       	cpi	r24, 0x08	; 8
    1d22:	59 f0       	breq	.+22     	; 0x1d3a <Home_vBath_Room+0x4e>
    1d24:	81 33       	cpi	r24, 0x31	; 49
    1d26:	99 f5       	brne	.+102    	; 0x1d8e <Home_vBath_Room+0xa2>
    1d28:	60 91 ac 05 	lds	r22, 0x05AC
    1d2c:	70 91 ad 05 	lds	r23, 0x05AD
    1d30:	80 91 ae 05 	lds	r24, 0x05AE
    1d34:	0e 94 8d 09 	call	0x131a	; 0x131a <LED_vTog>
    1d38:	2a c0       	rjmp	.+84     	; 0x1d8e <Home_vBath_Room+0xa2>
    1d3a:	8d e0       	ldi	r24, 0x0D	; 13
    1d3c:	0e 94 57 00 	call	0xae	; 0xae <USART_u8SendData>
    1d40:	26 c0       	rjmp	.+76     	; 0x1d8e <Home_vBath_Room+0xa2>
    1d42:	80 91 9f 05 	lds	r24, 0x059F
    1d46:	84 30       	cpi	r24, 0x04	; 4
    1d48:	11 f5       	brne	.+68     	; 0x1d8e <Home_vBath_Room+0xa2>
    1d4a:	80 91 0c 06 	lds	r24, 0x060C
    1d4e:	84 36       	cpi	r24, 0x64	; 100
    1d50:	c9 f4       	brne	.+50     	; 0x1d84 <Home_vBath_Room+0x98>
    1d52:	8d e0       	ldi	r24, 0x0D	; 13
    1d54:	0e 94 57 00 	call	0xae	; 0xae <USART_u8SendData>
    1d58:	80 91 df 05 	lds	r24, 0x05DF
    1d5c:	81 ff       	sbrs	r24, 1
    1d5e:	09 c0       	rjmp	.+18     	; 0x1d72 <Home_vBath_Room+0x86>
    1d60:	8a ed       	ldi	r24, 0xDA	; 218
    1d62:	91 e0       	ldi	r25, 0x01	; 1
    1d64:	0e 94 a8 00 	call	0x150	; 0x150 <USART_u8SendStringSynch>
    1d68:	80 91 df 05 	lds	r24, 0x05DF
    1d6c:	8d 7f       	andi	r24, 0xFD	; 253
    1d6e:	80 93 df 05 	sts	0x05DF, r24
    1d72:	8d e0       	ldi	r24, 0x0D	; 13
    1d74:	0e 94 57 00 	call	0xae	; 0xae <USART_u8SendData>
    1d78:	80 91 df 05 	lds	r24, 0x05DF
    1d7c:	81 60       	ori	r24, 0x01	; 1
    1d7e:	80 93 df 05 	sts	0x05DF, r24
    1d82:	08 95       	ret
    1d84:	80 91 0c 06 	lds	r24, 0x060C
    1d88:	8f 5f       	subi	r24, 0xFF	; 255
    1d8a:	80 93 0c 06 	sts	0x060C, r24
    1d8e:	80 91 22 06 	lds	r24, 0x0622
    1d92:	88 30       	cpi	r24, 0x08	; 8
    1d94:	09 f0       	breq	.+2      	; 0x1d98 <Home_vBath_Room+0xac>
    1d96:	b8 cf       	rjmp	.-144    	; 0x1d08 <Home_vBath_Room+0x1c>
    1d98:	08 95       	ret

00001d9a <Home_vSetting>:
    1d9a:	83 e2       	ldi	r24, 0x23	; 35
    1d9c:	92 e0       	ldi	r25, 0x02	; 2
    1d9e:	0e 94 a8 00 	call	0x150	; 0x150 <USART_u8SendStringSynch>
    1da2:	8d e0       	ldi	r24, 0x0D	; 13
    1da4:	0e 94 57 00 	call	0xae	; 0xae <USART_u8SendData>
    1da8:	8c e2       	ldi	r24, 0x2C	; 44
    1daa:	92 e0       	ldi	r25, 0x02	; 2
    1dac:	0e 94 a8 00 	call	0x150	; 0x150 <USART_u8SendStringSynch>
    1db0:	8d e0       	ldi	r24, 0x0D	; 13
    1db2:	0e 94 57 00 	call	0xae	; 0xae <USART_u8SendData>
    1db6:	8f e3       	ldi	r24, 0x3F	; 63
    1db8:	92 e0       	ldi	r25, 0x02	; 2
    1dba:	0e 94 a8 00 	call	0x150	; 0x150 <USART_u8SendStringSynch>
    1dbe:	8d e0       	ldi	r24, 0x0D	; 13
    1dc0:	0e 94 57 00 	call	0xae	; 0xae <USART_u8SendData>
    1dc4:	82 e5       	ldi	r24, 0x52	; 82
    1dc6:	92 e0       	ldi	r25, 0x02	; 2
    1dc8:	0e 94 a8 00 	call	0x150	; 0x150 <USART_u8SendStringSynch>
    1dcc:	8d e0       	ldi	r24, 0x0D	; 13
    1dce:	0e 94 57 00 	call	0xae	; 0xae <USART_u8SendData>
    1dd2:	82 e2       	ldi	r24, 0x22	; 34
    1dd4:	96 e0       	ldi	r25, 0x06	; 6
    1dd6:	0e 94 7d 00 	call	0xfa	; 0xfa <USART_u8ReceiveData>
    1dda:	80 93 9f 05 	sts	0x059F, r24
    1dde:	80 91 9f 05 	lds	r24, 0x059F
    1de2:	88 23       	and	r24, r24
    1de4:	09 f0       	breq	.+2      	; 0x1de8 <Home_vSetting+0x4e>
    1de6:	53 c0       	rjmp	.+166    	; 0x1e8e <Home_vSetting+0xf4>
    1de8:	80 91 22 06 	lds	r24, 0x0622
    1dec:	82 33       	cpi	r24, 0x32	; 50
    1dee:	c1 f0       	breq	.+48     	; 0x1e20 <Home_vSetting+0x86>
    1df0:	83 33       	cpi	r24, 0x33	; 51
    1df2:	38 f4       	brcc	.+14     	; 0x1e02 <Home_vSetting+0x68>
    1df4:	88 30       	cpi	r24, 0x08	; 8
    1df6:	09 f4       	brne	.+2      	; 0x1dfa <Home_vSetting+0x60>
    1df8:	46 c0       	rjmp	.+140    	; 0x1e86 <Home_vSetting+0xec>
    1dfa:	81 33       	cpi	r24, 0x31	; 49
    1dfc:	09 f0       	breq	.+2      	; 0x1e00 <Home_vSetting+0x66>
    1dfe:	6d c0       	rjmp	.+218    	; 0x1eda <Home_vSetting+0x140>
    1e00:	04 c0       	rjmp	.+8      	; 0x1e0a <Home_vSetting+0x70>
    1e02:	83 33       	cpi	r24, 0x33	; 51
    1e04:	09 f0       	breq	.+2      	; 0x1e08 <Home_vSetting+0x6e>
    1e06:	69 c0       	rjmp	.+210    	; 0x1eda <Home_vSetting+0x140>
    1e08:	14 c0       	rjmp	.+40     	; 0x1e32 <Home_vSetting+0x98>
    1e0a:	8d e0       	ldi	r24, 0x0D	; 13
    1e0c:	0e 94 57 00 	call	0xae	; 0xae <USART_u8SendData>
    1e10:	80 e1       	ldi	r24, 0x10	; 16
    1e12:	90 e0       	ldi	r25, 0x00	; 0
    1e14:	6f ef       	ldi	r22, 0xFF	; 255
    1e16:	0e 94 75 06 	call	0xcea	; 0xcea <EEPROM_vWrite>
    1e1a:	0e 94 ac 0a 	call	0x1558	; 0x1558 <UserName_Set>
    1e1e:	1a c0       	rjmp	.+52     	; 0x1e54 <Home_vSetting+0xba>
    1e20:	8d e0       	ldi	r24, 0x0D	; 13
    1e22:	0e 94 57 00 	call	0xae	; 0xae <USART_u8SendData>
    1e26:	81 e1       	ldi	r24, 0x11	; 17
    1e28:	90 e0       	ldi	r25, 0x00	; 0
    1e2a:	6f ef       	ldi	r22, 0xFF	; 255
    1e2c:	0e 94 75 06 	call	0xcea	; 0xcea <EEPROM_vWrite>
    1e30:	0f c0       	rjmp	.+30     	; 0x1e50 <Home_vSetting+0xb6>
    1e32:	8d e0       	ldi	r24, 0x0D	; 13
    1e34:	0e 94 57 00 	call	0xae	; 0xae <USART_u8SendData>
    1e38:	80 e1       	ldi	r24, 0x10	; 16
    1e3a:	90 e0       	ldi	r25, 0x00	; 0
    1e3c:	6f ef       	ldi	r22, 0xFF	; 255
    1e3e:	0e 94 75 06 	call	0xcea	; 0xcea <EEPROM_vWrite>
    1e42:	81 e1       	ldi	r24, 0x11	; 17
    1e44:	90 e0       	ldi	r25, 0x00	; 0
    1e46:	6f ef       	ldi	r22, 0xFF	; 255
    1e48:	0e 94 75 06 	call	0xcea	; 0xcea <EEPROM_vWrite>
    1e4c:	0e 94 ac 0a 	call	0x1558	; 0x1558 <UserName_Set>
    1e50:	0e 94 17 0a 	call	0x142e	; 0x142e <PassWord_Set>
    1e54:	83 e2       	ldi	r24, 0x23	; 35
    1e56:	92 e0       	ldi	r25, 0x02	; 2
    1e58:	0e 94 a8 00 	call	0x150	; 0x150 <USART_u8SendStringSynch>
    1e5c:	8d e0       	ldi	r24, 0x0D	; 13
    1e5e:	0e 94 57 00 	call	0xae	; 0xae <USART_u8SendData>
    1e62:	8c e2       	ldi	r24, 0x2C	; 44
    1e64:	92 e0       	ldi	r25, 0x02	; 2
    1e66:	0e 94 a8 00 	call	0x150	; 0x150 <USART_u8SendStringSynch>
    1e6a:	8d e0       	ldi	r24, 0x0D	; 13
    1e6c:	0e 94 57 00 	call	0xae	; 0xae <USART_u8SendData>
    1e70:	8f e3       	ldi	r24, 0x3F	; 63
    1e72:	92 e0       	ldi	r25, 0x02	; 2
    1e74:	0e 94 a8 00 	call	0x150	; 0x150 <USART_u8SendStringSynch>
    1e78:	8d e0       	ldi	r24, 0x0D	; 13
    1e7a:	0e 94 57 00 	call	0xae	; 0xae <USART_u8SendData>
    1e7e:	82 e5       	ldi	r24, 0x52	; 82
    1e80:	92 e0       	ldi	r25, 0x02	; 2
    1e82:	0e 94 a8 00 	call	0x150	; 0x150 <USART_u8SendStringSynch>
    1e86:	8d e0       	ldi	r24, 0x0D	; 13
    1e88:	0e 94 57 00 	call	0xae	; 0xae <USART_u8SendData>
    1e8c:	26 c0       	rjmp	.+76     	; 0x1eda <Home_vSetting+0x140>
    1e8e:	80 91 9f 05 	lds	r24, 0x059F
    1e92:	84 30       	cpi	r24, 0x04	; 4
    1e94:	11 f5       	brne	.+68     	; 0x1eda <Home_vSetting+0x140>
    1e96:	80 91 0c 06 	lds	r24, 0x060C
    1e9a:	84 36       	cpi	r24, 0x64	; 100
    1e9c:	c9 f4       	brne	.+50     	; 0x1ed0 <Home_vSetting+0x136>
    1e9e:	8d e0       	ldi	r24, 0x0D	; 13
    1ea0:	0e 94 57 00 	call	0xae	; 0xae <USART_u8SendData>
    1ea4:	80 91 df 05 	lds	r24, 0x05DF
    1ea8:	81 ff       	sbrs	r24, 1
    1eaa:	09 c0       	rjmp	.+18     	; 0x1ebe <Home_vSetting+0x124>
    1eac:	8a ed       	ldi	r24, 0xDA	; 218
    1eae:	91 e0       	ldi	r25, 0x01	; 1
    1eb0:	0e 94 a8 00 	call	0x150	; 0x150 <USART_u8SendStringSynch>
    1eb4:	80 91 df 05 	lds	r24, 0x05DF
    1eb8:	8d 7f       	andi	r24, 0xFD	; 253
    1eba:	80 93 df 05 	sts	0x05DF, r24
    1ebe:	8d e0       	ldi	r24, 0x0D	; 13
    1ec0:	0e 94 57 00 	call	0xae	; 0xae <USART_u8SendData>
    1ec4:	80 91 df 05 	lds	r24, 0x05DF
    1ec8:	81 60       	ori	r24, 0x01	; 1
    1eca:	80 93 df 05 	sts	0x05DF, r24
    1ece:	08 95       	ret
    1ed0:	80 91 0c 06 	lds	r24, 0x060C
    1ed4:	8f 5f       	subi	r24, 0xFF	; 255
    1ed6:	80 93 0c 06 	sts	0x060C, r24
    1eda:	80 91 22 06 	lds	r24, 0x0622
    1ede:	88 30       	cpi	r24, 0x08	; 8
    1ee0:	09 f0       	breq	.+2      	; 0x1ee4 <Home_vSetting+0x14a>
    1ee2:	77 cf       	rjmp	.-274    	; 0x1dd2 <Home_vSetting+0x38>
    1ee4:	08 95       	ret

00001ee6 <Auto_Fan_Control>:
    1ee6:	80 e7       	ldi	r24, 0x70	; 112
    1ee8:	92 e0       	ldi	r25, 0x02	; 2
    1eea:	0e 94 a8 00 	call	0x150	; 0x150 <USART_u8SendStringSynch>
    1eee:	8d e0       	ldi	r24, 0x0D	; 13
    1ef0:	0e 94 57 00 	call	0xae	; 0xae <USART_u8SendData>
    1ef4:	81 e8       	ldi	r24, 0x81	; 129
    1ef6:	92 e0       	ldi	r25, 0x02	; 2
    1ef8:	0e 94 a8 00 	call	0x150	; 0x150 <USART_u8SendStringSynch>
    1efc:	87 e9       	ldi	r24, 0x97	; 151
    1efe:	92 e0       	ldi	r25, 0x02	; 2
    1f00:	0e 94 a8 00 	call	0x150	; 0x150 <USART_u8SendStringSynch>
    1f04:	8d e0       	ldi	r24, 0x0D	; 13
    1f06:	0e 94 57 00 	call	0xae	; 0xae <USART_u8SendData>
    1f0a:	82 e2       	ldi	r24, 0x22	; 34
    1f0c:	96 e0       	ldi	r25, 0x06	; 6
    1f0e:	0e 94 7d 00 	call	0xfa	; 0xfa <USART_u8ReceiveData>
    1f12:	80 93 9f 05 	sts	0x059F, r24
    1f16:	80 91 9f 05 	lds	r24, 0x059F
    1f1a:	88 23       	and	r24, r24
    1f1c:	a9 f4       	brne	.+42     	; 0x1f48 <Auto_Fan_Control+0x62>
    1f1e:	80 91 22 06 	lds	r24, 0x0622
    1f22:	81 33       	cpi	r24, 0x31	; 49
    1f24:	29 f0       	breq	.+10     	; 0x1f30 <Auto_Fan_Control+0x4a>
    1f26:	82 33       	cpi	r24, 0x32	; 50
    1f28:	29 f0       	breq	.+10     	; 0x1f34 <Auto_Fan_Control+0x4e>
    1f2a:	88 30       	cpi	r24, 0x08	; 8
    1f2c:	99 f5       	brne	.+102    	; 0x1f94 <Auto_Fan_Control+0xae>
    1f2e:	08 c0       	rjmp	.+16     	; 0x1f40 <Auto_Fan_Control+0x5a>
    1f30:	80 e1       	ldi	r24, 0x10	; 16
    1f32:	01 c0       	rjmp	.+2      	; 0x1f36 <Auto_Fan_Control+0x50>
    1f34:	81 e1       	ldi	r24, 0x11	; 17
    1f36:	67 e3       	ldi	r22, 0x37	; 55
    1f38:	76 e0       	ldi	r23, 0x06	; 6
    1f3a:	0e 94 2b 04 	call	0x856	; 0x856 <SPI_u8Tranceive>
    1f3e:	2a c0       	rjmp	.+84     	; 0x1f94 <Auto_Fan_Control+0xae>
    1f40:	8d e0       	ldi	r24, 0x0D	; 13
    1f42:	0e 94 57 00 	call	0xae	; 0xae <USART_u8SendData>
    1f46:	26 c0       	rjmp	.+76     	; 0x1f94 <Auto_Fan_Control+0xae>
    1f48:	80 91 9f 05 	lds	r24, 0x059F
    1f4c:	84 30       	cpi	r24, 0x04	; 4
    1f4e:	11 f5       	brne	.+68     	; 0x1f94 <Auto_Fan_Control+0xae>
    1f50:	80 91 0c 06 	lds	r24, 0x060C
    1f54:	84 36       	cpi	r24, 0x64	; 100
    1f56:	c9 f4       	brne	.+50     	; 0x1f8a <Auto_Fan_Control+0xa4>
    1f58:	8d e0       	ldi	r24, 0x0D	; 13
    1f5a:	0e 94 57 00 	call	0xae	; 0xae <USART_u8SendData>
    1f5e:	80 91 df 05 	lds	r24, 0x05DF
    1f62:	81 ff       	sbrs	r24, 1
    1f64:	09 c0       	rjmp	.+18     	; 0x1f78 <Auto_Fan_Control+0x92>
    1f66:	8a ed       	ldi	r24, 0xDA	; 218
    1f68:	91 e0       	ldi	r25, 0x01	; 1
    1f6a:	0e 94 a8 00 	call	0x150	; 0x150 <USART_u8SendStringSynch>
    1f6e:	80 91 df 05 	lds	r24, 0x05DF
    1f72:	8d 7f       	andi	r24, 0xFD	; 253
    1f74:	80 93 df 05 	sts	0x05DF, r24
    1f78:	8d e0       	ldi	r24, 0x0D	; 13
    1f7a:	0e 94 57 00 	call	0xae	; 0xae <USART_u8SendData>
    1f7e:	80 91 df 05 	lds	r24, 0x05DF
    1f82:	81 60       	ori	r24, 0x01	; 1
    1f84:	80 93 df 05 	sts	0x05DF, r24
    1f88:	08 95       	ret
    1f8a:	80 91 0c 06 	lds	r24, 0x060C
    1f8e:	8f 5f       	subi	r24, 0xFF	; 255
    1f90:	80 93 0c 06 	sts	0x060C, r24
    1f94:	80 91 22 06 	lds	r24, 0x0622
    1f98:	88 30       	cpi	r24, 0x08	; 8
    1f9a:	09 f0       	breq	.+2      	; 0x1f9e <Auto_Fan_Control+0xb8>
    1f9c:	b6 cf       	rjmp	.-148    	; 0x1f0a <Auto_Fan_Control+0x24>
    1f9e:	08 95       	ret

00001fa0 <Salon_Door>:
    1fa0:	80 ea       	ldi	r24, 0xA0	; 160
    1fa2:	92 e0       	ldi	r25, 0x02	; 2
    1fa4:	0e 94 a8 00 	call	0x150	; 0x150 <USART_u8SendStringSynch>
    1fa8:	8d e0       	ldi	r24, 0x0D	; 13
    1faa:	0e 94 57 00 	call	0xae	; 0xae <USART_u8SendData>
    1fae:	81 e8       	ldi	r24, 0x81	; 129
    1fb0:	92 e0       	ldi	r25, 0x02	; 2
    1fb2:	0e 94 a8 00 	call	0x150	; 0x150 <USART_u8SendStringSynch>
    1fb6:	8e ea       	ldi	r24, 0xAE	; 174
    1fb8:	92 e0       	ldi	r25, 0x02	; 2
    1fba:	0e 94 a8 00 	call	0x150	; 0x150 <USART_u8SendStringSynch>
    1fbe:	8d e0       	ldi	r24, 0x0D	; 13
    1fc0:	0e 94 57 00 	call	0xae	; 0xae <USART_u8SendData>
    1fc4:	82 e2       	ldi	r24, 0x22	; 34
    1fc6:	96 e0       	ldi	r25, 0x06	; 6
    1fc8:	0e 94 7d 00 	call	0xfa	; 0xfa <USART_u8ReceiveData>
    1fcc:	80 93 9f 05 	sts	0x059F, r24
    1fd0:	80 91 9f 05 	lds	r24, 0x059F
    1fd4:	88 23       	and	r24, r24
    1fd6:	d1 f5       	brne	.+116    	; 0x204c <Salon_Door+0xac>
    1fd8:	80 91 22 06 	lds	r24, 0x0622
    1fdc:	81 33       	cpi	r24, 0x31	; 49
    1fde:	31 f0       	breq	.+12     	; 0x1fec <Salon_Door+0x4c>
    1fe0:	82 33       	cpi	r24, 0x32	; 50
    1fe2:	31 f0       	breq	.+12     	; 0x1ff0 <Salon_Door+0x50>
    1fe4:	88 30       	cpi	r24, 0x08	; 8
    1fe6:	09 f0       	breq	.+2      	; 0x1fea <Salon_Door+0x4a>
    1fe8:	57 c0       	rjmp	.+174    	; 0x2098 <Salon_Door+0xf8>
    1fea:	08 c0       	rjmp	.+16     	; 0x1ffc <Salon_Door+0x5c>
    1fec:	83 e0       	ldi	r24, 0x03	; 3
    1fee:	01 c0       	rjmp	.+2      	; 0x1ff2 <Salon_Door+0x52>
    1ff0:	84 e0       	ldi	r24, 0x04	; 4
    1ff2:	67 e3       	ldi	r22, 0x37	; 55
    1ff4:	76 e0       	ldi	r23, 0x06	; 6
    1ff6:	0e 94 2b 04 	call	0x856	; 0x856 <SPI_u8Tranceive>
    1ffa:	4e c0       	rjmp	.+156    	; 0x2098 <Salon_Door+0xf8>
    1ffc:	8d e0       	ldi	r24, 0x0D	; 13
    1ffe:	0e 94 57 00 	call	0xae	; 0xae <USART_u8SendData>
    2002:	86 eb       	ldi	r24, 0xB6	; 182
    2004:	92 e0       	ldi	r25, 0x02	; 2
    2006:	0e 94 a8 00 	call	0x150	; 0x150 <USART_u8SendStringSynch>
    200a:	8d e0       	ldi	r24, 0x0D	; 13
    200c:	0e 94 57 00 	call	0xae	; 0xae <USART_u8SendData>
    2010:	87 ec       	ldi	r24, 0xC7	; 199
    2012:	92 e0       	ldi	r25, 0x02	; 2
    2014:	0e 94 a8 00 	call	0x150	; 0x150 <USART_u8SendStringSynch>
    2018:	8d ed       	ldi	r24, 0xDD	; 221
    201a:	92 e0       	ldi	r25, 0x02	; 2
    201c:	0e 94 a8 00 	call	0x150	; 0x150 <USART_u8SendStringSynch>
    2020:	8d e0       	ldi	r24, 0x0D	; 13
    2022:	0e 94 57 00 	call	0xae	; 0xae <USART_u8SendData>
    2026:	8b ee       	ldi	r24, 0xEB	; 235
    2028:	92 e0       	ldi	r25, 0x02	; 2
    202a:	0e 94 a8 00 	call	0x150	; 0x150 <USART_u8SendStringSynch>
    202e:	81 e0       	ldi	r24, 0x01	; 1
    2030:	93 e0       	ldi	r25, 0x03	; 3
    2032:	0e 94 a8 00 	call	0x150	; 0x150 <USART_u8SendStringSynch>
    2036:	8d e0       	ldi	r24, 0x0D	; 13
    2038:	0e 94 57 00 	call	0xae	; 0xae <USART_u8SendData>
    203c:	80 e1       	ldi	r24, 0x10	; 16
    203e:	93 e0       	ldi	r25, 0x03	; 3
    2040:	0e 94 a8 00 	call	0x150	; 0x150 <USART_u8SendStringSynch>
    2044:	8d e0       	ldi	r24, 0x0D	; 13
    2046:	0e 94 57 00 	call	0xae	; 0xae <USART_u8SendData>
    204a:	26 c0       	rjmp	.+76     	; 0x2098 <Salon_Door+0xf8>
    204c:	80 91 9f 05 	lds	r24, 0x059F
    2050:	84 30       	cpi	r24, 0x04	; 4
    2052:	11 f5       	brne	.+68     	; 0x2098 <Salon_Door+0xf8>
    2054:	80 91 0c 06 	lds	r24, 0x060C
    2058:	84 36       	cpi	r24, 0x64	; 100
    205a:	c9 f4       	brne	.+50     	; 0x208e <Salon_Door+0xee>
    205c:	8d e0       	ldi	r24, 0x0D	; 13
    205e:	0e 94 57 00 	call	0xae	; 0xae <USART_u8SendData>
    2062:	80 91 df 05 	lds	r24, 0x05DF
    2066:	81 ff       	sbrs	r24, 1
    2068:	09 c0       	rjmp	.+18     	; 0x207c <Salon_Door+0xdc>
    206a:	8a ed       	ldi	r24, 0xDA	; 218
    206c:	91 e0       	ldi	r25, 0x01	; 1
    206e:	0e 94 a8 00 	call	0x150	; 0x150 <USART_u8SendStringSynch>
    2072:	80 91 df 05 	lds	r24, 0x05DF
    2076:	8d 7f       	andi	r24, 0xFD	; 253
    2078:	80 93 df 05 	sts	0x05DF, r24
    207c:	8d e0       	ldi	r24, 0x0D	; 13
    207e:	0e 94 57 00 	call	0xae	; 0xae <USART_u8SendData>
    2082:	80 91 df 05 	lds	r24, 0x05DF
    2086:	81 60       	ori	r24, 0x01	; 1
    2088:	80 93 df 05 	sts	0x05DF, r24
    208c:	08 95       	ret
    208e:	80 91 0c 06 	lds	r24, 0x060C
    2092:	8f 5f       	subi	r24, 0xFF	; 255
    2094:	80 93 0c 06 	sts	0x060C, r24
    2098:	80 91 22 06 	lds	r24, 0x0622
    209c:	88 30       	cpi	r24, 0x08	; 8
    209e:	09 f0       	breq	.+2      	; 0x20a2 <Salon_Door+0x102>
    20a0:	91 cf       	rjmp	.-222    	; 0x1fc4 <Salon_Door+0x24>
    20a2:	08 95       	ret

000020a4 <Reception_Door>:
    20a4:	8e e1       	ldi	r24, 0x1E	; 30
    20a6:	93 e0       	ldi	r25, 0x03	; 3
    20a8:	0e 94 a8 00 	call	0x150	; 0x150 <USART_u8SendStringSynch>
    20ac:	8d e0       	ldi	r24, 0x0D	; 13
    20ae:	0e 94 57 00 	call	0xae	; 0xae <USART_u8SendData>
    20b2:	81 e8       	ldi	r24, 0x81	; 129
    20b4:	92 e0       	ldi	r25, 0x02	; 2
    20b6:	0e 94 a8 00 	call	0x150	; 0x150 <USART_u8SendStringSynch>
    20ba:	8e ea       	ldi	r24, 0xAE	; 174
    20bc:	92 e0       	ldi	r25, 0x02	; 2
    20be:	0e 94 a8 00 	call	0x150	; 0x150 <USART_u8SendStringSynch>
    20c2:	8d e0       	ldi	r24, 0x0D	; 13
    20c4:	0e 94 57 00 	call	0xae	; 0xae <USART_u8SendData>
    20c8:	82 e2       	ldi	r24, 0x22	; 34
    20ca:	96 e0       	ldi	r25, 0x06	; 6
    20cc:	0e 94 7d 00 	call	0xfa	; 0xfa <USART_u8ReceiveData>
    20d0:	80 93 9f 05 	sts	0x059F, r24
    20d4:	80 91 9f 05 	lds	r24, 0x059F
    20d8:	88 23       	and	r24, r24
    20da:	d1 f5       	brne	.+116    	; 0x2150 <Reception_Door+0xac>
    20dc:	80 91 22 06 	lds	r24, 0x0622
    20e0:	81 33       	cpi	r24, 0x31	; 49
    20e2:	31 f0       	breq	.+12     	; 0x20f0 <Reception_Door+0x4c>
    20e4:	82 33       	cpi	r24, 0x32	; 50
    20e6:	31 f0       	breq	.+12     	; 0x20f4 <Reception_Door+0x50>
    20e8:	88 30       	cpi	r24, 0x08	; 8
    20ea:	09 f0       	breq	.+2      	; 0x20ee <Reception_Door+0x4a>
    20ec:	57 c0       	rjmp	.+174    	; 0x219c <Reception_Door+0xf8>
    20ee:	08 c0       	rjmp	.+16     	; 0x2100 <Reception_Door+0x5c>
    20f0:	81 e0       	ldi	r24, 0x01	; 1
    20f2:	01 c0       	rjmp	.+2      	; 0x20f6 <Reception_Door+0x52>
    20f4:	82 e0       	ldi	r24, 0x02	; 2
    20f6:	67 e3       	ldi	r22, 0x37	; 55
    20f8:	76 e0       	ldi	r23, 0x06	; 6
    20fa:	0e 94 2b 04 	call	0x856	; 0x856 <SPI_u8Tranceive>
    20fe:	4e c0       	rjmp	.+156    	; 0x219c <Reception_Door+0xf8>
    2100:	8d e0       	ldi	r24, 0x0D	; 13
    2102:	0e 94 57 00 	call	0xae	; 0xae <USART_u8SendData>
    2106:	86 eb       	ldi	r24, 0xB6	; 182
    2108:	92 e0       	ldi	r25, 0x02	; 2
    210a:	0e 94 a8 00 	call	0x150	; 0x150 <USART_u8SendStringSynch>
    210e:	8d e0       	ldi	r24, 0x0D	; 13
    2110:	0e 94 57 00 	call	0xae	; 0xae <USART_u8SendData>
    2114:	87 ec       	ldi	r24, 0xC7	; 199
    2116:	92 e0       	ldi	r25, 0x02	; 2
    2118:	0e 94 a8 00 	call	0x150	; 0x150 <USART_u8SendStringSynch>
    211c:	8d ed       	ldi	r24, 0xDD	; 221
    211e:	92 e0       	ldi	r25, 0x02	; 2
    2120:	0e 94 a8 00 	call	0x150	; 0x150 <USART_u8SendStringSynch>
    2124:	8d e0       	ldi	r24, 0x0D	; 13
    2126:	0e 94 57 00 	call	0xae	; 0xae <USART_u8SendData>
    212a:	8b ee       	ldi	r24, 0xEB	; 235
    212c:	92 e0       	ldi	r25, 0x02	; 2
    212e:	0e 94 a8 00 	call	0x150	; 0x150 <USART_u8SendStringSynch>
    2132:	81 e0       	ldi	r24, 0x01	; 1
    2134:	93 e0       	ldi	r25, 0x03	; 3
    2136:	0e 94 a8 00 	call	0x150	; 0x150 <USART_u8SendStringSynch>
    213a:	8d e0       	ldi	r24, 0x0D	; 13
    213c:	0e 94 57 00 	call	0xae	; 0xae <USART_u8SendData>
    2140:	80 e1       	ldi	r24, 0x10	; 16
    2142:	93 e0       	ldi	r25, 0x03	; 3
    2144:	0e 94 a8 00 	call	0x150	; 0x150 <USART_u8SendStringSynch>
    2148:	8d e0       	ldi	r24, 0x0D	; 13
    214a:	0e 94 57 00 	call	0xae	; 0xae <USART_u8SendData>
    214e:	26 c0       	rjmp	.+76     	; 0x219c <Reception_Door+0xf8>
    2150:	80 91 9f 05 	lds	r24, 0x059F
    2154:	84 30       	cpi	r24, 0x04	; 4
    2156:	11 f5       	brne	.+68     	; 0x219c <Reception_Door+0xf8>
    2158:	80 91 0c 06 	lds	r24, 0x060C
    215c:	84 36       	cpi	r24, 0x64	; 100
    215e:	c9 f4       	brne	.+50     	; 0x2192 <Reception_Door+0xee>
    2160:	8d e0       	ldi	r24, 0x0D	; 13
    2162:	0e 94 57 00 	call	0xae	; 0xae <USART_u8SendData>
    2166:	80 91 df 05 	lds	r24, 0x05DF
    216a:	81 ff       	sbrs	r24, 1
    216c:	09 c0       	rjmp	.+18     	; 0x2180 <Reception_Door+0xdc>
    216e:	8a ed       	ldi	r24, 0xDA	; 218
    2170:	91 e0       	ldi	r25, 0x01	; 1
    2172:	0e 94 a8 00 	call	0x150	; 0x150 <USART_u8SendStringSynch>
    2176:	80 91 df 05 	lds	r24, 0x05DF
    217a:	8d 7f       	andi	r24, 0xFD	; 253
    217c:	80 93 df 05 	sts	0x05DF, r24
    2180:	8d e0       	ldi	r24, 0x0D	; 13
    2182:	0e 94 57 00 	call	0xae	; 0xae <USART_u8SendData>
    2186:	80 91 df 05 	lds	r24, 0x05DF
    218a:	81 60       	ori	r24, 0x01	; 1
    218c:	80 93 df 05 	sts	0x05DF, r24
    2190:	08 95       	ret
    2192:	80 91 0c 06 	lds	r24, 0x060C
    2196:	8f 5f       	subi	r24, 0xFF	; 255
    2198:	80 93 0c 06 	sts	0x060C, r24
    219c:	80 91 22 06 	lds	r24, 0x0622
    21a0:	88 30       	cpi	r24, 0x08	; 8
    21a2:	09 f0       	breq	.+2      	; 0x21a6 <Reception_Door+0x102>
    21a4:	91 cf       	rjmp	.-222    	; 0x20c8 <Reception_Door+0x24>
    21a6:	08 95       	ret

000021a8 <Home_vKitchen>:
    21a8:	80 e3       	ldi	r24, 0x30	; 48
    21aa:	93 e0       	ldi	r25, 0x03	; 3
    21ac:	0e 94 a8 00 	call	0x150	; 0x150 <USART_u8SendStringSynch>
    21b0:	8d e0       	ldi	r24, 0x0D	; 13
    21b2:	0e 94 57 00 	call	0xae	; 0xae <USART_u8SendData>
    21b6:	80 e9       	ldi	r24, 0x90	; 144
    21b8:	91 e0       	ldi	r25, 0x01	; 1
    21ba:	0e 94 a8 00 	call	0x150	; 0x150 <USART_u8SendStringSynch>
    21be:	86 ea       	ldi	r24, 0xA6	; 166
    21c0:	91 e0       	ldi	r25, 0x01	; 1
    21c2:	0e 94 a8 00 	call	0x150	; 0x150 <USART_u8SendStringSynch>
    21c6:	8d e0       	ldi	r24, 0x0D	; 13
    21c8:	0e 94 57 00 	call	0xae	; 0xae <USART_u8SendData>
    21cc:	83 e4       	ldi	r24, 0x43	; 67
    21ce:	93 e0       	ldi	r25, 0x03	; 3
    21d0:	0e 94 a8 00 	call	0x150	; 0x150 <USART_u8SendStringSynch>
    21d4:	8d e0       	ldi	r24, 0x0D	; 13
    21d6:	0e 94 57 00 	call	0xae	; 0xae <USART_u8SendData>
    21da:	82 e2       	ldi	r24, 0x22	; 34
    21dc:	96 e0       	ldi	r25, 0x06	; 6
    21de:	0e 94 7d 00 	call	0xfa	; 0xfa <USART_u8ReceiveData>
    21e2:	80 93 9f 05 	sts	0x059F, r24
    21e6:	80 91 9f 05 	lds	r24, 0x059F
    21ea:	88 23       	and	r24, r24
    21ec:	59 f5       	brne	.+86     	; 0x2244 <Home_vKitchen+0x9c>
    21ee:	80 91 22 06 	lds	r24, 0x0622
    21f2:	82 33       	cpi	r24, 0x32	; 50
    21f4:	99 f0       	breq	.+38     	; 0x221c <Home_vKitchen+0x74>
    21f6:	83 33       	cpi	r24, 0x33	; 51
    21f8:	30 f4       	brcc	.+12     	; 0x2206 <Home_vKitchen+0x5e>
    21fa:	88 30       	cpi	r24, 0x08	; 8
    21fc:	f9 f0       	breq	.+62     	; 0x223c <Home_vKitchen+0x94>
    21fe:	81 33       	cpi	r24, 0x31	; 49
    2200:	09 f0       	breq	.+2      	; 0x2204 <Home_vKitchen+0x5c>
    2202:	46 c0       	rjmp	.+140    	; 0x2290 <Home_vKitchen+0xe8>
    2204:	04 c0       	rjmp	.+8      	; 0x220e <Home_vKitchen+0x66>
    2206:	83 33       	cpi	r24, 0x33	; 51
    2208:	09 f0       	breq	.+2      	; 0x220c <Home_vKitchen+0x64>
    220a:	42 c0       	rjmp	.+132    	; 0x2290 <Home_vKitchen+0xe8>
    220c:	10 c0       	rjmp	.+32     	; 0x222e <Home_vKitchen+0x86>
    220e:	60 91 a0 05 	lds	r22, 0x05A0
    2212:	70 91 a1 05 	lds	r23, 0x05A1
    2216:	80 91 a2 05 	lds	r24, 0x05A2
    221a:	06 c0       	rjmp	.+12     	; 0x2228 <Home_vKitchen+0x80>
    221c:	60 91 a3 05 	lds	r22, 0x05A3
    2220:	70 91 a4 05 	lds	r23, 0x05A4
    2224:	80 91 a5 05 	lds	r24, 0x05A5
    2228:	0e 94 8d 09 	call	0x131a	; 0x131a <LED_vTog>
    222c:	31 c0       	rjmp	.+98     	; 0x2290 <Home_vKitchen+0xe8>
    222e:	60 91 37 06 	lds	r22, 0x0637
    2232:	8f e0       	ldi	r24, 0x0F	; 15
    2234:	70 e0       	ldi	r23, 0x00	; 0
    2236:	0e 94 2b 04 	call	0x856	; 0x856 <SPI_u8Tranceive>
    223a:	2a c0       	rjmp	.+84     	; 0x2290 <Home_vKitchen+0xe8>
    223c:	8d e0       	ldi	r24, 0x0D	; 13
    223e:	0e 94 57 00 	call	0xae	; 0xae <USART_u8SendData>
    2242:	26 c0       	rjmp	.+76     	; 0x2290 <Home_vKitchen+0xe8>
    2244:	80 91 9f 05 	lds	r24, 0x059F
    2248:	84 30       	cpi	r24, 0x04	; 4
    224a:	11 f5       	brne	.+68     	; 0x2290 <Home_vKitchen+0xe8>
    224c:	80 91 0c 06 	lds	r24, 0x060C
    2250:	84 36       	cpi	r24, 0x64	; 100
    2252:	c9 f4       	brne	.+50     	; 0x2286 <Home_vKitchen+0xde>
    2254:	8d e0       	ldi	r24, 0x0D	; 13
    2256:	0e 94 57 00 	call	0xae	; 0xae <USART_u8SendData>
    225a:	80 91 df 05 	lds	r24, 0x05DF
    225e:	81 ff       	sbrs	r24, 1
    2260:	09 c0       	rjmp	.+18     	; 0x2274 <Home_vKitchen+0xcc>
    2262:	8a ed       	ldi	r24, 0xDA	; 218
    2264:	91 e0       	ldi	r25, 0x01	; 1
    2266:	0e 94 a8 00 	call	0x150	; 0x150 <USART_u8SendStringSynch>
    226a:	80 91 df 05 	lds	r24, 0x05DF
    226e:	8d 7f       	andi	r24, 0xFD	; 253
    2270:	80 93 df 05 	sts	0x05DF, r24
    2274:	8d e0       	ldi	r24, 0x0D	; 13
    2276:	0e 94 57 00 	call	0xae	; 0xae <USART_u8SendData>
    227a:	80 91 df 05 	lds	r24, 0x05DF
    227e:	81 60       	ori	r24, 0x01	; 1
    2280:	80 93 df 05 	sts	0x05DF, r24
    2284:	08 95       	ret
    2286:	80 91 0c 06 	lds	r24, 0x060C
    228a:	8f 5f       	subi	r24, 0xFF	; 255
    228c:	80 93 0c 06 	sts	0x060C, r24
    2290:	80 91 22 06 	lds	r24, 0x0622
    2294:	88 30       	cpi	r24, 0x08	; 8
    2296:	09 f0       	breq	.+2      	; 0x229a <Home_vKitchen+0xf2>
    2298:	a0 cf       	rjmp	.-192    	; 0x21da <Home_vKitchen+0x32>
    229a:	08 95       	ret

0000229c <Sal_vFan>:
    229c:	82 e5       	ldi	r24, 0x52	; 82
    229e:	93 e0       	ldi	r25, 0x03	; 3
    22a0:	0e 94 a8 00 	call	0x150	; 0x150 <USART_u8SendStringSynch>
    22a4:	8d e0       	ldi	r24, 0x0D	; 13
    22a6:	0e 94 57 00 	call	0xae	; 0xae <USART_u8SendData>
    22aa:	81 e6       	ldi	r24, 0x61	; 97
    22ac:	93 e0       	ldi	r25, 0x03	; 3
    22ae:	0e 94 a8 00 	call	0x150	; 0x150 <USART_u8SendStringSynch>
    22b2:	87 e7       	ldi	r24, 0x77	; 119
    22b4:	93 e0       	ldi	r25, 0x03	; 3
    22b6:	0e 94 a8 00 	call	0x150	; 0x150 <USART_u8SendStringSynch>
    22ba:	8d e0       	ldi	r24, 0x0D	; 13
    22bc:	0e 94 57 00 	call	0xae	; 0xae <USART_u8SendData>
    22c0:	82 e8       	ldi	r24, 0x82	; 130
    22c2:	93 e0       	ldi	r25, 0x03	; 3
    22c4:	0e 94 a8 00 	call	0x150	; 0x150 <USART_u8SendStringSynch>
    22c8:	88 e9       	ldi	r24, 0x98	; 152
    22ca:	93 e0       	ldi	r25, 0x03	; 3
    22cc:	0e 94 a8 00 	call	0x150	; 0x150 <USART_u8SendStringSynch>
    22d0:	8d e0       	ldi	r24, 0x0D	; 13
    22d2:	0e 94 57 00 	call	0xae	; 0xae <USART_u8SendData>
    22d6:	83 ea       	ldi	r24, 0xA3	; 163
    22d8:	93 e0       	ldi	r25, 0x03	; 3
    22da:	0e 94 a8 00 	call	0x150	; 0x150 <USART_u8SendStringSynch>
    22de:	8d e0       	ldi	r24, 0x0D	; 13
    22e0:	0e 94 57 00 	call	0xae	; 0xae <USART_u8SendData>
    22e4:	82 e2       	ldi	r24, 0x22	; 34
    22e6:	96 e0       	ldi	r25, 0x06	; 6
    22e8:	0e 94 7d 00 	call	0xfa	; 0xfa <USART_u8ReceiveData>
    22ec:	80 93 9f 05 	sts	0x059F, r24
    22f0:	80 91 9f 05 	lds	r24, 0x059F
    22f4:	88 23       	and	r24, r24
    22f6:	09 f0       	breq	.+2      	; 0x22fa <Sal_vFan+0x5e>
    22f8:	43 c0       	rjmp	.+134    	; 0x2380 <Sal_vFan+0xe4>
    22fa:	80 91 22 06 	lds	r24, 0x0622
    22fe:	83 33       	cpi	r24, 0x33	; 51
    2300:	a1 f0       	breq	.+40     	; 0x232a <Sal_vFan+0x8e>
    2302:	84 33       	cpi	r24, 0x34	; 52
    2304:	40 f4       	brcc	.+16     	; 0x2316 <Sal_vFan+0x7a>
    2306:	81 33       	cpi	r24, 0x31	; 49
    2308:	61 f0       	breq	.+24     	; 0x2322 <Sal_vFan+0x86>
    230a:	82 33       	cpi	r24, 0x32	; 50
    230c:	60 f4       	brcc	.+24     	; 0x2326 <Sal_vFan+0x8a>
    230e:	88 30       	cpi	r24, 0x08	; 8
    2310:	09 f0       	breq	.+2      	; 0x2314 <Sal_vFan+0x78>
    2312:	5c c0       	rjmp	.+184    	; 0x23cc <Sal_vFan+0x130>
    2314:	14 c0       	rjmp	.+40     	; 0x233e <Sal_vFan+0xa2>
    2316:	84 33       	cpi	r24, 0x34	; 52
    2318:	51 f0       	breq	.+20     	; 0x232e <Sal_vFan+0x92>
    231a:	85 33       	cpi	r24, 0x35	; 53
    231c:	09 f0       	breq	.+2      	; 0x2320 <Sal_vFan+0x84>
    231e:	56 c0       	rjmp	.+172    	; 0x23cc <Sal_vFan+0x130>
    2320:	08 c0       	rjmp	.+16     	; 0x2332 <Sal_vFan+0x96>
    2322:	8a e0       	ldi	r24, 0x0A	; 10
    2324:	07 c0       	rjmp	.+14     	; 0x2334 <Sal_vFan+0x98>
    2326:	8b e0       	ldi	r24, 0x0B	; 11
    2328:	05 c0       	rjmp	.+10     	; 0x2334 <Sal_vFan+0x98>
    232a:	8c e0       	ldi	r24, 0x0C	; 12
    232c:	03 c0       	rjmp	.+6      	; 0x2334 <Sal_vFan+0x98>
    232e:	8d e0       	ldi	r24, 0x0D	; 13
    2330:	01 c0       	rjmp	.+2      	; 0x2334 <Sal_vFan+0x98>
    2332:	8e e0       	ldi	r24, 0x0E	; 14
    2334:	67 e3       	ldi	r22, 0x37	; 55
    2336:	76 e0       	ldi	r23, 0x06	; 6
    2338:	0e 94 2b 04 	call	0x856	; 0x856 <SPI_u8Tranceive>
    233c:	47 c0       	rjmp	.+142    	; 0x23cc <Sal_vFan+0x130>
    233e:	8d e0       	ldi	r24, 0x0D	; 13
    2340:	0e 94 57 00 	call	0xae	; 0xae <USART_u8SendData>
    2344:	8e ea       	ldi	r24, 0xAE	; 174
    2346:	93 e0       	ldi	r25, 0x03	; 3
    2348:	0e 94 a8 00 	call	0x150	; 0x150 <USART_u8SendStringSynch>
    234c:	8d e0       	ldi	r24, 0x0D	; 13
    234e:	0e 94 57 00 	call	0xae	; 0xae <USART_u8SendData>
    2352:	80 e9       	ldi	r24, 0x90	; 144
    2354:	91 e0       	ldi	r25, 0x01	; 1
    2356:	0e 94 a8 00 	call	0x150	; 0x150 <USART_u8SendStringSynch>
    235a:	86 ea       	ldi	r24, 0xA6	; 166
    235c:	91 e0       	ldi	r25, 0x01	; 1
    235e:	0e 94 a8 00 	call	0x150	; 0x150 <USART_u8SendStringSynch>
    2362:	8d e0       	ldi	r24, 0x0D	; 13
    2364:	0e 94 57 00 	call	0xae	; 0xae <USART_u8SendData>
    2368:	8f eb       	ldi	r24, 0xBF	; 191
    236a:	93 e0       	ldi	r25, 0x03	; 3
    236c:	0e 94 a8 00 	call	0x150	; 0x150 <USART_u8SendStringSynch>
    2370:	85 ed       	ldi	r24, 0xD5	; 213
    2372:	93 e0       	ldi	r25, 0x03	; 3
    2374:	0e 94 a8 00 	call	0x150	; 0x150 <USART_u8SendStringSynch>
    2378:	8d e0       	ldi	r24, 0x0D	; 13
    237a:	0e 94 57 00 	call	0xae	; 0xae <USART_u8SendData>
    237e:	26 c0       	rjmp	.+76     	; 0x23cc <Sal_vFan+0x130>
    2380:	80 91 9f 05 	lds	r24, 0x059F
    2384:	84 30       	cpi	r24, 0x04	; 4
    2386:	11 f5       	brne	.+68     	; 0x23cc <Sal_vFan+0x130>
    2388:	80 91 0c 06 	lds	r24, 0x060C
    238c:	84 36       	cpi	r24, 0x64	; 100
    238e:	c9 f4       	brne	.+50     	; 0x23c2 <Sal_vFan+0x126>
    2390:	8d e0       	ldi	r24, 0x0D	; 13
    2392:	0e 94 57 00 	call	0xae	; 0xae <USART_u8SendData>
    2396:	80 91 df 05 	lds	r24, 0x05DF
    239a:	81 ff       	sbrs	r24, 1
    239c:	09 c0       	rjmp	.+18     	; 0x23b0 <Sal_vFan+0x114>
    239e:	8a ed       	ldi	r24, 0xDA	; 218
    23a0:	91 e0       	ldi	r25, 0x01	; 1
    23a2:	0e 94 a8 00 	call	0x150	; 0x150 <USART_u8SendStringSynch>
    23a6:	80 91 df 05 	lds	r24, 0x05DF
    23aa:	8d 7f       	andi	r24, 0xFD	; 253
    23ac:	80 93 df 05 	sts	0x05DF, r24
    23b0:	8d e0       	ldi	r24, 0x0D	; 13
    23b2:	0e 94 57 00 	call	0xae	; 0xae <USART_u8SendData>
    23b6:	80 91 df 05 	lds	r24, 0x05DF
    23ba:	81 60       	ori	r24, 0x01	; 1
    23bc:	80 93 df 05 	sts	0x05DF, r24
    23c0:	08 95       	ret
    23c2:	80 91 0c 06 	lds	r24, 0x060C
    23c6:	8f 5f       	subi	r24, 0xFF	; 255
    23c8:	80 93 0c 06 	sts	0x060C, r24
    23cc:	80 91 22 06 	lds	r24, 0x0622
    23d0:	88 30       	cpi	r24, 0x08	; 8
    23d2:	09 f0       	breq	.+2      	; 0x23d6 <Sal_vFan+0x13a>
    23d4:	87 cf       	rjmp	.-242    	; 0x22e4 <Sal_vFan+0x48>
    23d6:	08 95       	ret

000023d8 <Home_vSalon>:
    23d8:	1f 93       	push	r17
    23da:	8e ea       	ldi	r24, 0xAE	; 174
    23dc:	93 e0       	ldi	r25, 0x03	; 3
    23de:	0e 94 a8 00 	call	0x150	; 0x150 <USART_u8SendStringSynch>
    23e2:	8d e0       	ldi	r24, 0x0D	; 13
    23e4:	0e 94 57 00 	call	0xae	; 0xae <USART_u8SendData>
    23e8:	80 e9       	ldi	r24, 0x90	; 144
    23ea:	91 e0       	ldi	r25, 0x01	; 1
    23ec:	0e 94 a8 00 	call	0x150	; 0x150 <USART_u8SendStringSynch>
    23f0:	86 ea       	ldi	r24, 0xA6	; 166
    23f2:	91 e0       	ldi	r25, 0x01	; 1
    23f4:	0e 94 a8 00 	call	0x150	; 0x150 <USART_u8SendStringSynch>
    23f8:	8d e0       	ldi	r24, 0x0D	; 13
    23fa:	0e 94 57 00 	call	0xae	; 0xae <USART_u8SendData>
    23fe:	80 ee       	ldi	r24, 0xE0	; 224
    2400:	93 e0       	ldi	r25, 0x03	; 3
    2402:	0e 94 a8 00 	call	0x150	; 0x150 <USART_u8SendStringSynch>
    2406:	8d e0       	ldi	r24, 0x0D	; 13
    2408:	0e 94 57 00 	call	0xae	; 0xae <USART_u8SendData>
    240c:	1f ef       	ldi	r17, 0xFF	; 255
    240e:	82 e2       	ldi	r24, 0x22	; 34
    2410:	96 e0       	ldi	r25, 0x06	; 6
    2412:	0e 94 7d 00 	call	0xfa	; 0xfa <USART_u8ReceiveData>
    2416:	80 93 9f 05 	sts	0x059F, r24
    241a:	80 91 9f 05 	lds	r24, 0x059F
    241e:	88 23       	and	r24, r24
    2420:	49 f5       	brne	.+82     	; 0x2474 <Home_vSalon+0x9c>
    2422:	80 91 22 06 	lds	r24, 0x0622
    2426:	82 33       	cpi	r24, 0x32	; 50
    2428:	99 f0       	breq	.+38     	; 0x2450 <Home_vSalon+0x78>
    242a:	83 33       	cpi	r24, 0x33	; 51
    242c:	30 f4       	brcc	.+12     	; 0x243a <Home_vSalon+0x62>
    242e:	88 30       	cpi	r24, 0x08	; 8
    2430:	e9 f0       	breq	.+58     	; 0x246c <Home_vSalon+0x94>
    2432:	81 33       	cpi	r24, 0x31	; 49
    2434:	09 f0       	breq	.+2      	; 0x2438 <Home_vSalon+0x60>
    2436:	44 c0       	rjmp	.+136    	; 0x24c0 <Home_vSalon+0xe8>
    2438:	04 c0       	rjmp	.+8      	; 0x2442 <Home_vSalon+0x6a>
    243a:	83 33       	cpi	r24, 0x33	; 51
    243c:	09 f0       	breq	.+2      	; 0x2440 <Home_vSalon+0x68>
    243e:	40 c0       	rjmp	.+128    	; 0x24c0 <Home_vSalon+0xe8>
    2440:	10 c0       	rjmp	.+32     	; 0x2462 <Home_vSalon+0x8a>
    2442:	60 91 c4 05 	lds	r22, 0x05C4
    2446:	70 91 c5 05 	lds	r23, 0x05C5
    244a:	80 91 c6 05 	lds	r24, 0x05C6
    244e:	06 c0       	rjmp	.+12     	; 0x245c <Home_vSalon+0x84>
    2450:	60 91 c7 05 	lds	r22, 0x05C7
    2454:	70 91 c8 05 	lds	r23, 0x05C8
    2458:	80 91 c9 05 	lds	r24, 0x05C9
    245c:	0e 94 8d 09 	call	0x131a	; 0x131a <LED_vTog>
    2460:	2f c0       	rjmp	.+94     	; 0x24c0 <Home_vSalon+0xe8>
    2462:	0e 94 4e 11 	call	0x229c	; 0x229c <Sal_vFan>
    2466:	10 93 22 06 	sts	0x0622, r17
    246a:	2a c0       	rjmp	.+84     	; 0x24c0 <Home_vSalon+0xe8>
    246c:	8d e0       	ldi	r24, 0x0D	; 13
    246e:	0e 94 57 00 	call	0xae	; 0xae <USART_u8SendData>
    2472:	26 c0       	rjmp	.+76     	; 0x24c0 <Home_vSalon+0xe8>
    2474:	80 91 9f 05 	lds	r24, 0x059F
    2478:	84 30       	cpi	r24, 0x04	; 4
    247a:	11 f5       	brne	.+68     	; 0x24c0 <Home_vSalon+0xe8>
    247c:	80 91 0c 06 	lds	r24, 0x060C
    2480:	84 36       	cpi	r24, 0x64	; 100
    2482:	c9 f4       	brne	.+50     	; 0x24b6 <Home_vSalon+0xde>
    2484:	8d e0       	ldi	r24, 0x0D	; 13
    2486:	0e 94 57 00 	call	0xae	; 0xae <USART_u8SendData>
    248a:	80 91 df 05 	lds	r24, 0x05DF
    248e:	81 ff       	sbrs	r24, 1
    2490:	09 c0       	rjmp	.+18     	; 0x24a4 <Home_vSalon+0xcc>
    2492:	8a ed       	ldi	r24, 0xDA	; 218
    2494:	91 e0       	ldi	r25, 0x01	; 1
    2496:	0e 94 a8 00 	call	0x150	; 0x150 <USART_u8SendStringSynch>
    249a:	80 91 df 05 	lds	r24, 0x05DF
    249e:	8d 7f       	andi	r24, 0xFD	; 253
    24a0:	80 93 df 05 	sts	0x05DF, r24
    24a4:	8d e0       	ldi	r24, 0x0D	; 13
    24a6:	0e 94 57 00 	call	0xae	; 0xae <USART_u8SendData>
    24aa:	80 91 df 05 	lds	r24, 0x05DF
    24ae:	81 60       	ori	r24, 0x01	; 1
    24b0:	80 93 df 05 	sts	0x05DF, r24
    24b4:	0a c0       	rjmp	.+20     	; 0x24ca <Home_vSalon+0xf2>
    24b6:	80 91 0c 06 	lds	r24, 0x060C
    24ba:	8f 5f       	subi	r24, 0xFF	; 255
    24bc:	80 93 0c 06 	sts	0x060C, r24
    24c0:	80 91 22 06 	lds	r24, 0x0622
    24c4:	88 30       	cpi	r24, 0x08	; 8
    24c6:	09 f0       	breq	.+2      	; 0x24ca <Home_vSalon+0xf2>
    24c8:	a2 cf       	rjmp	.-188    	; 0x240e <Home_vSalon+0x36>
    24ca:	1f 91       	pop	r17
    24cc:	08 95       	ret

000024ce <Rec_vFan>:
    24ce:	82 e5       	ldi	r24, 0x52	; 82
    24d0:	93 e0       	ldi	r25, 0x03	; 3
    24d2:	0e 94 a8 00 	call	0x150	; 0x150 <USART_u8SendStringSynch>
    24d6:	8d e0       	ldi	r24, 0x0D	; 13
    24d8:	0e 94 57 00 	call	0xae	; 0xae <USART_u8SendData>
    24dc:	81 e6       	ldi	r24, 0x61	; 97
    24de:	93 e0       	ldi	r25, 0x03	; 3
    24e0:	0e 94 a8 00 	call	0x150	; 0x150 <USART_u8SendStringSynch>
    24e4:	87 e7       	ldi	r24, 0x77	; 119
    24e6:	93 e0       	ldi	r25, 0x03	; 3
    24e8:	0e 94 a8 00 	call	0x150	; 0x150 <USART_u8SendStringSynch>
    24ec:	8d e0       	ldi	r24, 0x0D	; 13
    24ee:	0e 94 57 00 	call	0xae	; 0xae <USART_u8SendData>
    24f2:	82 e8       	ldi	r24, 0x82	; 130
    24f4:	93 e0       	ldi	r25, 0x03	; 3
    24f6:	0e 94 a8 00 	call	0x150	; 0x150 <USART_u8SendStringSynch>
    24fa:	88 e9       	ldi	r24, 0x98	; 152
    24fc:	93 e0       	ldi	r25, 0x03	; 3
    24fe:	0e 94 a8 00 	call	0x150	; 0x150 <USART_u8SendStringSynch>
    2502:	8d e0       	ldi	r24, 0x0D	; 13
    2504:	0e 94 57 00 	call	0xae	; 0xae <USART_u8SendData>
    2508:	83 ea       	ldi	r24, 0xA3	; 163
    250a:	93 e0       	ldi	r25, 0x03	; 3
    250c:	0e 94 a8 00 	call	0x150	; 0x150 <USART_u8SendStringSynch>
    2510:	8d e0       	ldi	r24, 0x0D	; 13
    2512:	0e 94 57 00 	call	0xae	; 0xae <USART_u8SendData>
    2516:	82 e2       	ldi	r24, 0x22	; 34
    2518:	96 e0       	ldi	r25, 0x06	; 6
    251a:	0e 94 7d 00 	call	0xfa	; 0xfa <USART_u8ReceiveData>
    251e:	80 93 9f 05 	sts	0x059F, r24
    2522:	80 91 9f 05 	lds	r24, 0x059F
    2526:	88 23       	and	r24, r24
    2528:	09 f0       	breq	.+2      	; 0x252c <Rec_vFan+0x5e>
    252a:	43 c0       	rjmp	.+134    	; 0x25b2 <Rec_vFan+0xe4>
    252c:	80 91 22 06 	lds	r24, 0x0622
    2530:	83 33       	cpi	r24, 0x33	; 51
    2532:	a1 f0       	breq	.+40     	; 0x255c <Rec_vFan+0x8e>
    2534:	84 33       	cpi	r24, 0x34	; 52
    2536:	40 f4       	brcc	.+16     	; 0x2548 <Rec_vFan+0x7a>
    2538:	81 33       	cpi	r24, 0x31	; 49
    253a:	61 f0       	breq	.+24     	; 0x2554 <Rec_vFan+0x86>
    253c:	82 33       	cpi	r24, 0x32	; 50
    253e:	60 f4       	brcc	.+24     	; 0x2558 <Rec_vFan+0x8a>
    2540:	88 30       	cpi	r24, 0x08	; 8
    2542:	09 f0       	breq	.+2      	; 0x2546 <Rec_vFan+0x78>
    2544:	5c c0       	rjmp	.+184    	; 0x25fe <Rec_vFan+0x130>
    2546:	14 c0       	rjmp	.+40     	; 0x2570 <Rec_vFan+0xa2>
    2548:	84 33       	cpi	r24, 0x34	; 52
    254a:	51 f0       	breq	.+20     	; 0x2560 <Rec_vFan+0x92>
    254c:	85 33       	cpi	r24, 0x35	; 53
    254e:	09 f0       	breq	.+2      	; 0x2552 <Rec_vFan+0x84>
    2550:	56 c0       	rjmp	.+172    	; 0x25fe <Rec_vFan+0x130>
    2552:	08 c0       	rjmp	.+16     	; 0x2564 <Rec_vFan+0x96>
    2554:	85 e0       	ldi	r24, 0x05	; 5
    2556:	07 c0       	rjmp	.+14     	; 0x2566 <Rec_vFan+0x98>
    2558:	86 e0       	ldi	r24, 0x06	; 6
    255a:	05 c0       	rjmp	.+10     	; 0x2566 <Rec_vFan+0x98>
    255c:	87 e0       	ldi	r24, 0x07	; 7
    255e:	03 c0       	rjmp	.+6      	; 0x2566 <Rec_vFan+0x98>
    2560:	88 e0       	ldi	r24, 0x08	; 8
    2562:	01 c0       	rjmp	.+2      	; 0x2566 <Rec_vFan+0x98>
    2564:	89 e0       	ldi	r24, 0x09	; 9
    2566:	67 e3       	ldi	r22, 0x37	; 55
    2568:	76 e0       	ldi	r23, 0x06	; 6
    256a:	0e 94 2b 04 	call	0x856	; 0x856 <SPI_u8Tranceive>
    256e:	47 c0       	rjmp	.+142    	; 0x25fe <Rec_vFan+0x130>
    2570:	8d e0       	ldi	r24, 0x0D	; 13
    2572:	0e 94 57 00 	call	0xae	; 0xae <USART_u8SendData>
    2576:	8b ee       	ldi	r24, 0xEB	; 235
    2578:	93 e0       	ldi	r25, 0x03	; 3
    257a:	0e 94 a8 00 	call	0x150	; 0x150 <USART_u8SendStringSynch>
    257e:	8d e0       	ldi	r24, 0x0D	; 13
    2580:	0e 94 57 00 	call	0xae	; 0xae <USART_u8SendData>
    2584:	80 e9       	ldi	r24, 0x90	; 144
    2586:	91 e0       	ldi	r25, 0x01	; 1
    2588:	0e 94 a8 00 	call	0x150	; 0x150 <USART_u8SendStringSynch>
    258c:	86 ea       	ldi	r24, 0xA6	; 166
    258e:	91 e0       	ldi	r25, 0x01	; 1
    2590:	0e 94 a8 00 	call	0x150	; 0x150 <USART_u8SendStringSynch>
    2594:	8d e0       	ldi	r24, 0x0D	; 13
    2596:	0e 94 57 00 	call	0xae	; 0xae <USART_u8SendData>
    259a:	8f eb       	ldi	r24, 0xBF	; 191
    259c:	93 e0       	ldi	r25, 0x03	; 3
    259e:	0e 94 a8 00 	call	0x150	; 0x150 <USART_u8SendStringSynch>
    25a2:	85 ed       	ldi	r24, 0xD5	; 213
    25a4:	93 e0       	ldi	r25, 0x03	; 3
    25a6:	0e 94 a8 00 	call	0x150	; 0x150 <USART_u8SendStringSynch>
    25aa:	8d e0       	ldi	r24, 0x0D	; 13
    25ac:	0e 94 57 00 	call	0xae	; 0xae <USART_u8SendData>
    25b0:	26 c0       	rjmp	.+76     	; 0x25fe <Rec_vFan+0x130>
    25b2:	80 91 9f 05 	lds	r24, 0x059F
    25b6:	84 30       	cpi	r24, 0x04	; 4
    25b8:	11 f5       	brne	.+68     	; 0x25fe <Rec_vFan+0x130>
    25ba:	80 91 0c 06 	lds	r24, 0x060C
    25be:	84 36       	cpi	r24, 0x64	; 100
    25c0:	c9 f4       	brne	.+50     	; 0x25f4 <Rec_vFan+0x126>
    25c2:	8d e0       	ldi	r24, 0x0D	; 13
    25c4:	0e 94 57 00 	call	0xae	; 0xae <USART_u8SendData>
    25c8:	80 91 df 05 	lds	r24, 0x05DF
    25cc:	81 ff       	sbrs	r24, 1
    25ce:	09 c0       	rjmp	.+18     	; 0x25e2 <Rec_vFan+0x114>
    25d0:	8a ed       	ldi	r24, 0xDA	; 218
    25d2:	91 e0       	ldi	r25, 0x01	; 1
    25d4:	0e 94 a8 00 	call	0x150	; 0x150 <USART_u8SendStringSynch>
    25d8:	80 91 df 05 	lds	r24, 0x05DF
    25dc:	8d 7f       	andi	r24, 0xFD	; 253
    25de:	80 93 df 05 	sts	0x05DF, r24
    25e2:	8d e0       	ldi	r24, 0x0D	; 13
    25e4:	0e 94 57 00 	call	0xae	; 0xae <USART_u8SendData>
    25e8:	80 91 df 05 	lds	r24, 0x05DF
    25ec:	81 60       	ori	r24, 0x01	; 1
    25ee:	80 93 df 05 	sts	0x05DF, r24
    25f2:	08 95       	ret
    25f4:	80 91 0c 06 	lds	r24, 0x060C
    25f8:	8f 5f       	subi	r24, 0xFF	; 255
    25fa:	80 93 0c 06 	sts	0x060C, r24
    25fe:	80 91 22 06 	lds	r24, 0x0622
    2602:	88 30       	cpi	r24, 0x08	; 8
    2604:	09 f0       	breq	.+2      	; 0x2608 <Rec_vFan+0x13a>
    2606:	87 cf       	rjmp	.-242    	; 0x2516 <Rec_vFan+0x48>
    2608:	08 95       	ret

0000260a <Home_vReception>:
    260a:	1f 93       	push	r17
    260c:	8b ee       	ldi	r24, 0xEB	; 235
    260e:	93 e0       	ldi	r25, 0x03	; 3
    2610:	0e 94 a8 00 	call	0x150	; 0x150 <USART_u8SendStringSynch>
    2614:	8d e0       	ldi	r24, 0x0D	; 13
    2616:	0e 94 57 00 	call	0xae	; 0xae <USART_u8SendData>
    261a:	80 e9       	ldi	r24, 0x90	; 144
    261c:	91 e0       	ldi	r25, 0x01	; 1
    261e:	0e 94 a8 00 	call	0x150	; 0x150 <USART_u8SendStringSynch>
    2622:	86 ea       	ldi	r24, 0xA6	; 166
    2624:	91 e0       	ldi	r25, 0x01	; 1
    2626:	0e 94 a8 00 	call	0x150	; 0x150 <USART_u8SendStringSynch>
    262a:	8d e0       	ldi	r24, 0x0D	; 13
    262c:	0e 94 57 00 	call	0xae	; 0xae <USART_u8SendData>
    2630:	8f eb       	ldi	r24, 0xBF	; 191
    2632:	93 e0       	ldi	r25, 0x03	; 3
    2634:	0e 94 a8 00 	call	0x150	; 0x150 <USART_u8SendStringSynch>
    2638:	85 ed       	ldi	r24, 0xD5	; 213
    263a:	93 e0       	ldi	r25, 0x03	; 3
    263c:	0e 94 a8 00 	call	0x150	; 0x150 <USART_u8SendStringSynch>
    2640:	8d e0       	ldi	r24, 0x0D	; 13
    2642:	0e 94 57 00 	call	0xae	; 0xae <USART_u8SendData>
    2646:	1f ef       	ldi	r17, 0xFF	; 255
    2648:	82 e2       	ldi	r24, 0x22	; 34
    264a:	96 e0       	ldi	r25, 0x06	; 6
    264c:	0e 94 7d 00 	call	0xfa	; 0xfa <USART_u8ReceiveData>
    2650:	80 93 9f 05 	sts	0x059F, r24
    2654:	80 91 9f 05 	lds	r24, 0x059F
    2658:	88 23       	and	r24, r24
    265a:	a9 f5       	brne	.+106    	; 0x26c6 <Home_vReception+0xbc>
    265c:	80 91 22 06 	lds	r24, 0x0622
    2660:	82 33       	cpi	r24, 0x32	; 50
    2662:	a9 f0       	breq	.+42     	; 0x268e <Home_vReception+0x84>
    2664:	83 33       	cpi	r24, 0x33	; 51
    2666:	30 f4       	brcc	.+12     	; 0x2674 <Home_vReception+0x6a>
    2668:	88 30       	cpi	r24, 0x08	; 8
    266a:	49 f1       	breq	.+82     	; 0x26be <Home_vReception+0xb4>
    266c:	81 33       	cpi	r24, 0x31	; 49
    266e:	09 f0       	breq	.+2      	; 0x2672 <Home_vReception+0x68>
    2670:	50 c0       	rjmp	.+160    	; 0x2712 <Home_vReception+0x108>
    2672:	06 c0       	rjmp	.+12     	; 0x2680 <Home_vReception+0x76>
    2674:	83 33       	cpi	r24, 0x33	; 51
    2676:	91 f0       	breq	.+36     	; 0x269c <Home_vReception+0x92>
    2678:	84 33       	cpi	r24, 0x34	; 52
    267a:	09 f0       	breq	.+2      	; 0x267e <Home_vReception+0x74>
    267c:	4a c0       	rjmp	.+148    	; 0x2712 <Home_vReception+0x108>
    267e:	17 c0       	rjmp	.+46     	; 0x26ae <Home_vReception+0xa4>
    2680:	60 91 ca 05 	lds	r22, 0x05CA
    2684:	70 91 cb 05 	lds	r23, 0x05CB
    2688:	80 91 cc 05 	lds	r24, 0x05CC
    268c:	0d c0       	rjmp	.+26     	; 0x26a8 <Home_vReception+0x9e>
    268e:	60 91 cd 05 	lds	r22, 0x05CD
    2692:	70 91 ce 05 	lds	r23, 0x05CE
    2696:	80 91 cf 05 	lds	r24, 0x05CF
    269a:	06 c0       	rjmp	.+12     	; 0x26a8 <Home_vReception+0x9e>
    269c:	60 91 d0 05 	lds	r22, 0x05D0
    26a0:	70 91 d1 05 	lds	r23, 0x05D1
    26a4:	80 91 d2 05 	lds	r24, 0x05D2
    26a8:	0e 94 8d 09 	call	0x131a	; 0x131a <LED_vTog>
    26ac:	32 c0       	rjmp	.+100    	; 0x2712 <Home_vReception+0x108>
    26ae:	8d e0       	ldi	r24, 0x0D	; 13
    26b0:	0e 94 57 00 	call	0xae	; 0xae <USART_u8SendData>
    26b4:	0e 94 67 12 	call	0x24ce	; 0x24ce <Rec_vFan>
    26b8:	10 93 22 06 	sts	0x0622, r17
    26bc:	2a c0       	rjmp	.+84     	; 0x2712 <Home_vReception+0x108>
    26be:	8d e0       	ldi	r24, 0x0D	; 13
    26c0:	0e 94 57 00 	call	0xae	; 0xae <USART_u8SendData>
    26c4:	26 c0       	rjmp	.+76     	; 0x2712 <Home_vReception+0x108>
    26c6:	80 91 9f 05 	lds	r24, 0x059F
    26ca:	84 30       	cpi	r24, 0x04	; 4
    26cc:	11 f5       	brne	.+68     	; 0x2712 <Home_vReception+0x108>
    26ce:	80 91 0c 06 	lds	r24, 0x060C
    26d2:	84 36       	cpi	r24, 0x64	; 100
    26d4:	c9 f4       	brne	.+50     	; 0x2708 <Home_vReception+0xfe>
    26d6:	8d e0       	ldi	r24, 0x0D	; 13
    26d8:	0e 94 57 00 	call	0xae	; 0xae <USART_u8SendData>
    26dc:	80 91 df 05 	lds	r24, 0x05DF
    26e0:	81 ff       	sbrs	r24, 1
    26e2:	09 c0       	rjmp	.+18     	; 0x26f6 <Home_vReception+0xec>
    26e4:	8a ed       	ldi	r24, 0xDA	; 218
    26e6:	91 e0       	ldi	r25, 0x01	; 1
    26e8:	0e 94 a8 00 	call	0x150	; 0x150 <USART_u8SendStringSynch>
    26ec:	80 91 df 05 	lds	r24, 0x05DF
    26f0:	8d 7f       	andi	r24, 0xFD	; 253
    26f2:	80 93 df 05 	sts	0x05DF, r24
    26f6:	8d e0       	ldi	r24, 0x0D	; 13
    26f8:	0e 94 57 00 	call	0xae	; 0xae <USART_u8SendData>
    26fc:	80 91 df 05 	lds	r24, 0x05DF
    2700:	81 60       	ori	r24, 0x01	; 1
    2702:	80 93 df 05 	sts	0x05DF, r24
    2706:	0a c0       	rjmp	.+20     	; 0x271c <Home_vReception+0x112>
    2708:	80 91 0c 06 	lds	r24, 0x060C
    270c:	8f 5f       	subi	r24, 0xFF	; 255
    270e:	80 93 0c 06 	sts	0x060C, r24
    2712:	80 91 22 06 	lds	r24, 0x0622
    2716:	88 30       	cpi	r24, 0x08	; 8
    2718:	09 f0       	breq	.+2      	; 0x271c <Home_vReception+0x112>
    271a:	96 cf       	rjmp	.-212    	; 0x2648 <Home_vReception+0x3e>
    271c:	1f 91       	pop	r17
    271e:	08 95       	ret

00002720 <Home_vStair>:
    2720:	1f 93       	push	r17
    2722:	cf 93       	push	r28
    2724:	df 93       	push	r29
    2726:	86 eb       	ldi	r24, 0xB6	; 182
    2728:	92 e0       	ldi	r25, 0x02	; 2
    272a:	0e 94 a8 00 	call	0x150	; 0x150 <USART_u8SendStringSynch>
    272e:	8d e0       	ldi	r24, 0x0D	; 13
    2730:	0e 94 57 00 	call	0xae	; 0xae <USART_u8SendData>
    2734:	87 ec       	ldi	r24, 0xC7	; 199
    2736:	92 e0       	ldi	r25, 0x02	; 2
    2738:	0e 94 a8 00 	call	0x150	; 0x150 <USART_u8SendStringSynch>
    273c:	8d ed       	ldi	r24, 0xDD	; 221
    273e:	92 e0       	ldi	r25, 0x02	; 2
    2740:	0e 94 a8 00 	call	0x150	; 0x150 <USART_u8SendStringSynch>
    2744:	8d e0       	ldi	r24, 0x0D	; 13
    2746:	0e 94 57 00 	call	0xae	; 0xae <USART_u8SendData>
    274a:	8b ee       	ldi	r24, 0xEB	; 235
    274c:	92 e0       	ldi	r25, 0x02	; 2
    274e:	0e 94 a8 00 	call	0x150	; 0x150 <USART_u8SendStringSynch>
    2752:	81 e0       	ldi	r24, 0x01	; 1
    2754:	93 e0       	ldi	r25, 0x03	; 3
    2756:	0e 94 a8 00 	call	0x150	; 0x150 <USART_u8SendStringSynch>
    275a:	8d e0       	ldi	r24, 0x0D	; 13
    275c:	0e 94 57 00 	call	0xae	; 0xae <USART_u8SendData>
    2760:	80 e1       	ldi	r24, 0x10	; 16
    2762:	93 e0       	ldi	r25, 0x03	; 3
    2764:	0e 94 a8 00 	call	0x150	; 0x150 <USART_u8SendStringSynch>
    2768:	8d e0       	ldi	r24, 0x0D	; 13
    276a:	0e 94 57 00 	call	0xae	; 0xae <USART_u8SendData>
    276e:	c8 ec       	ldi	r28, 0xC8	; 200
    2770:	d0 e0       	ldi	r29, 0x00	; 0
    2772:	1f ef       	ldi	r17, 0xFF	; 255
    2774:	82 e2       	ldi	r24, 0x22	; 34
    2776:	96 e0       	ldi	r25, 0x06	; 6
    2778:	0e 94 7d 00 	call	0xfa	; 0xfa <USART_u8ReceiveData>
    277c:	80 93 9f 05 	sts	0x059F, r24
    2780:	80 91 9f 05 	lds	r24, 0x059F
    2784:	88 23       	and	r24, r24
    2786:	09 f0       	breq	.+2      	; 0x278a <Home_vStair+0x6a>
    2788:	4f c0       	rjmp	.+158    	; 0x2828 <Home_vStair+0x108>
    278a:	80 91 22 06 	lds	r24, 0x0622
    278e:	83 33       	cpi	r24, 0x33	; 51
    2790:	f1 f0       	breq	.+60     	; 0x27ce <Home_vStair+0xae>
    2792:	84 33       	cpi	r24, 0x34	; 52
    2794:	40 f4       	brcc	.+16     	; 0x27a6 <Home_vStair+0x86>
    2796:	81 33       	cpi	r24, 0x31	; 49
    2798:	61 f0       	breq	.+24     	; 0x27b2 <Home_vStair+0x92>
    279a:	82 33       	cpi	r24, 0x32	; 50
    279c:	80 f4       	brcc	.+32     	; 0x27be <Home_vStair+0x9e>
    279e:	88 30       	cpi	r24, 0x08	; 8
    27a0:	09 f0       	breq	.+2      	; 0x27a4 <Home_vStair+0x84>
    27a2:	68 c0       	rjmp	.+208    	; 0x2874 <Home_vStair+0x154>
    27a4:	3d c0       	rjmp	.+122    	; 0x2820 <Home_vStair+0x100>
    27a6:	84 33       	cpi	r24, 0x34	; 52
    27a8:	01 f1       	breq	.+64     	; 0x27ea <Home_vStair+0xca>
    27aa:	85 33       	cpi	r24, 0x35	; 53
    27ac:	09 f0       	breq	.+2      	; 0x27b0 <Home_vStair+0x90>
    27ae:	62 c0       	rjmp	.+196    	; 0x2874 <Home_vStair+0x154>
    27b0:	2e c0       	rjmp	.+92     	; 0x280e <Home_vStair+0xee>
    27b2:	8d e0       	ldi	r24, 0x0D	; 13
    27b4:	0e 94 57 00 	call	0xae	; 0xae <USART_u8SendData>
    27b8:	0e 94 52 10 	call	0x20a4	; 0x20a4 <Reception_Door>
    27bc:	05 c0       	rjmp	.+10     	; 0x27c8 <Home_vStair+0xa8>
    27be:	8d e0       	ldi	r24, 0x0D	; 13
    27c0:	0e 94 57 00 	call	0xae	; 0xae <USART_u8SendData>
    27c4:	0e 94 d0 0f 	call	0x1fa0	; 0x1fa0 <Salon_Door>
    27c8:	10 93 22 06 	sts	0x0622, r17
    27cc:	53 c0       	rjmp	.+166    	; 0x2874 <Home_vStair+0x154>
    27ce:	81 e0       	ldi	r24, 0x01	; 1
    27d0:	67 e3       	ldi	r22, 0x37	; 55
    27d2:	76 e0       	ldi	r23, 0x06	; 6
    27d4:	0e 94 2b 04 	call	0x856	; 0x856 <SPI_u8Tranceive>
    27d8:	84 ef       	ldi	r24, 0xF4	; 244
    27da:	91 e0       	ldi	r25, 0x01	; 1
    27dc:	fe 01       	movw	r30, r28
    27de:	31 97       	sbiw	r30, 0x01	; 1
    27e0:	f1 f7       	brne	.-4      	; 0x27de <Home_vStair+0xbe>
    27e2:	01 97       	sbiw	r24, 0x01	; 1
    27e4:	d9 f7       	brne	.-10     	; 0x27dc <Home_vStair+0xbc>
    27e6:	83 e0       	ldi	r24, 0x03	; 3
    27e8:	0d c0       	rjmp	.+26     	; 0x2804 <Home_vStair+0xe4>
    27ea:	82 e0       	ldi	r24, 0x02	; 2
    27ec:	67 e3       	ldi	r22, 0x37	; 55
    27ee:	76 e0       	ldi	r23, 0x06	; 6
    27f0:	0e 94 2b 04 	call	0x856	; 0x856 <SPI_u8Tranceive>
    27f4:	84 ef       	ldi	r24, 0xF4	; 244
    27f6:	91 e0       	ldi	r25, 0x01	; 1
    27f8:	fe 01       	movw	r30, r28
    27fa:	31 97       	sbiw	r30, 0x01	; 1
    27fc:	f1 f7       	brne	.-4      	; 0x27fa <Home_vStair+0xda>
    27fe:	01 97       	sbiw	r24, 0x01	; 1
    2800:	d9 f7       	brne	.-10     	; 0x27f8 <Home_vStair+0xd8>
    2802:	84 e0       	ldi	r24, 0x04	; 4
    2804:	67 e3       	ldi	r22, 0x37	; 55
    2806:	76 e0       	ldi	r23, 0x06	; 6
    2808:	0e 94 2b 04 	call	0x856	; 0x856 <SPI_u8Tranceive>
    280c:	33 c0       	rjmp	.+102    	; 0x2874 <Home_vStair+0x154>
    280e:	60 91 b5 05 	lds	r22, 0x05B5
    2812:	70 91 b6 05 	lds	r23, 0x05B6
    2816:	80 91 b7 05 	lds	r24, 0x05B7
    281a:	0e 94 8d 09 	call	0x131a	; 0x131a <LED_vTog>
    281e:	2a c0       	rjmp	.+84     	; 0x2874 <Home_vStair+0x154>
    2820:	8d e0       	ldi	r24, 0x0D	; 13
    2822:	0e 94 57 00 	call	0xae	; 0xae <USART_u8SendData>
    2826:	26 c0       	rjmp	.+76     	; 0x2874 <Home_vStair+0x154>
    2828:	80 91 9f 05 	lds	r24, 0x059F
    282c:	84 30       	cpi	r24, 0x04	; 4
    282e:	11 f5       	brne	.+68     	; 0x2874 <Home_vStair+0x154>
    2830:	80 91 0c 06 	lds	r24, 0x060C
    2834:	84 36       	cpi	r24, 0x64	; 100
    2836:	c9 f4       	brne	.+50     	; 0x286a <Home_vStair+0x14a>
    2838:	8d e0       	ldi	r24, 0x0D	; 13
    283a:	0e 94 57 00 	call	0xae	; 0xae <USART_u8SendData>
    283e:	80 91 df 05 	lds	r24, 0x05DF
    2842:	81 ff       	sbrs	r24, 1
    2844:	09 c0       	rjmp	.+18     	; 0x2858 <Home_vStair+0x138>
    2846:	8a ed       	ldi	r24, 0xDA	; 218
    2848:	91 e0       	ldi	r25, 0x01	; 1
    284a:	0e 94 a8 00 	call	0x150	; 0x150 <USART_u8SendStringSynch>
    284e:	80 91 df 05 	lds	r24, 0x05DF
    2852:	8d 7f       	andi	r24, 0xFD	; 253
    2854:	80 93 df 05 	sts	0x05DF, r24
    2858:	8d e0       	ldi	r24, 0x0D	; 13
    285a:	0e 94 57 00 	call	0xae	; 0xae <USART_u8SendData>
    285e:	80 91 df 05 	lds	r24, 0x05DF
    2862:	81 60       	ori	r24, 0x01	; 1
    2864:	80 93 df 05 	sts	0x05DF, r24
    2868:	0a c0       	rjmp	.+20     	; 0x287e <Home_vStair+0x15e>
    286a:	80 91 0c 06 	lds	r24, 0x060C
    286e:	8f 5f       	subi	r24, 0xFF	; 255
    2870:	80 93 0c 06 	sts	0x060C, r24
    2874:	80 91 22 06 	lds	r24, 0x0622
    2878:	88 30       	cpi	r24, 0x08	; 8
    287a:	09 f0       	breq	.+2      	; 0x287e <Home_vStair+0x15e>
    287c:	7b cf       	rjmp	.-266    	; 0x2774 <Home_vStair+0x54>
    287e:	df 91       	pop	r29
    2880:	cf 91       	pop	r28
    2882:	1f 91       	pop	r17
    2884:	08 95       	ret

00002886 <Child_vFan>:
    2886:	82 e5       	ldi	r24, 0x52	; 82
    2888:	93 e0       	ldi	r25, 0x03	; 3
    288a:	0e 94 a8 00 	call	0x150	; 0x150 <USART_u8SendStringSynch>
    288e:	8d e0       	ldi	r24, 0x0D	; 13
    2890:	0e 94 57 00 	call	0xae	; 0xae <USART_u8SendData>
    2894:	81 e6       	ldi	r24, 0x61	; 97
    2896:	93 e0       	ldi	r25, 0x03	; 3
    2898:	0e 94 a8 00 	call	0x150	; 0x150 <USART_u8SendStringSynch>
    289c:	87 e7       	ldi	r24, 0x77	; 119
    289e:	93 e0       	ldi	r25, 0x03	; 3
    28a0:	0e 94 a8 00 	call	0x150	; 0x150 <USART_u8SendStringSynch>
    28a4:	8d e0       	ldi	r24, 0x0D	; 13
    28a6:	0e 94 57 00 	call	0xae	; 0xae <USART_u8SendData>
    28aa:	82 e8       	ldi	r24, 0x82	; 130
    28ac:	93 e0       	ldi	r25, 0x03	; 3
    28ae:	0e 94 a8 00 	call	0x150	; 0x150 <USART_u8SendStringSynch>
    28b2:	88 e9       	ldi	r24, 0x98	; 152
    28b4:	93 e0       	ldi	r25, 0x03	; 3
    28b6:	0e 94 a8 00 	call	0x150	; 0x150 <USART_u8SendStringSynch>
    28ba:	8d e0       	ldi	r24, 0x0D	; 13
    28bc:	0e 94 57 00 	call	0xae	; 0xae <USART_u8SendData>
    28c0:	83 ea       	ldi	r24, 0xA3	; 163
    28c2:	93 e0       	ldi	r25, 0x03	; 3
    28c4:	0e 94 a8 00 	call	0x150	; 0x150 <USART_u8SendStringSynch>
    28c8:	8d e0       	ldi	r24, 0x0D	; 13
    28ca:	0e 94 57 00 	call	0xae	; 0xae <USART_u8SendData>
    28ce:	82 e2       	ldi	r24, 0x22	; 34
    28d0:	96 e0       	ldi	r25, 0x06	; 6
    28d2:	0e 94 7d 00 	call	0xfa	; 0xfa <USART_u8ReceiveData>
    28d6:	80 93 9f 05 	sts	0x059F, r24
    28da:	80 91 9f 05 	lds	r24, 0x059F
    28de:	88 23       	and	r24, r24
    28e0:	e9 f5       	brne	.+122    	; 0x295c <Child_vFan+0xd6>
    28e2:	80 91 22 06 	lds	r24, 0x0622
    28e6:	83 33       	cpi	r24, 0x33	; 51
    28e8:	a1 f0       	breq	.+40     	; 0x2912 <Child_vFan+0x8c>
    28ea:	84 33       	cpi	r24, 0x34	; 52
    28ec:	40 f4       	brcc	.+16     	; 0x28fe <Child_vFan+0x78>
    28ee:	81 33       	cpi	r24, 0x31	; 49
    28f0:	61 f0       	breq	.+24     	; 0x290a <Child_vFan+0x84>
    28f2:	82 33       	cpi	r24, 0x32	; 50
    28f4:	60 f4       	brcc	.+24     	; 0x290e <Child_vFan+0x88>
    28f6:	88 30       	cpi	r24, 0x08	; 8
    28f8:	09 f0       	breq	.+2      	; 0x28fc <Child_vFan+0x76>
    28fa:	56 c0       	rjmp	.+172    	; 0x29a8 <Child_vFan+0x122>
    28fc:	12 c0       	rjmp	.+36     	; 0x2922 <Child_vFan+0x9c>
    28fe:	84 33       	cpi	r24, 0x34	; 52
    2900:	51 f0       	breq	.+20     	; 0x2916 <Child_vFan+0x90>
    2902:	85 33       	cpi	r24, 0x35	; 53
    2904:	09 f0       	breq	.+2      	; 0x2908 <Child_vFan+0x82>
    2906:	50 c0       	rjmp	.+160    	; 0x29a8 <Child_vFan+0x122>
    2908:	08 c0       	rjmp	.+16     	; 0x291a <Child_vFan+0x94>
    290a:	80 e0       	ldi	r24, 0x00	; 0
    290c:	07 c0       	rjmp	.+14     	; 0x291c <Child_vFan+0x96>
    290e:	8f e3       	ldi	r24, 0x3F	; 63
    2910:	05 c0       	rjmp	.+10     	; 0x291c <Child_vFan+0x96>
    2912:	8e e7       	ldi	r24, 0x7E	; 126
    2914:	03 c0       	rjmp	.+6      	; 0x291c <Child_vFan+0x96>
    2916:	8d eb       	ldi	r24, 0xBD	; 189
    2918:	01 c0       	rjmp	.+2      	; 0x291c <Child_vFan+0x96>
    291a:	8f ef       	ldi	r24, 0xFF	; 255
    291c:	0e 94 18 02 	call	0x430	; 0x430 <TIMER2_vSetCTC>
    2920:	43 c0       	rjmp	.+134    	; 0x29a8 <Child_vFan+0x122>
    2922:	8d e0       	ldi	r24, 0x0D	; 13
    2924:	0e 94 57 00 	call	0xae	; 0xae <USART_u8SendData>
    2928:	80 e0       	ldi	r24, 0x00	; 0
    292a:	94 e0       	ldi	r25, 0x04	; 4
    292c:	0e 94 a8 00 	call	0x150	; 0x150 <USART_u8SendStringSynch>
    2930:	8d e0       	ldi	r24, 0x0D	; 13
    2932:	0e 94 57 00 	call	0xae	; 0xae <USART_u8SendData>
    2936:	80 e9       	ldi	r24, 0x90	; 144
    2938:	91 e0       	ldi	r25, 0x01	; 1
    293a:	0e 94 a8 00 	call	0x150	; 0x150 <USART_u8SendStringSynch>
    293e:	86 ea       	ldi	r24, 0xA6	; 166
    2940:	91 e0       	ldi	r25, 0x01	; 1
    2942:	0e 94 a8 00 	call	0x150	; 0x150 <USART_u8SendStringSynch>
    2946:	8d e0       	ldi	r24, 0x0D	; 13
    2948:	0e 94 57 00 	call	0xae	; 0xae <USART_u8SendData>
    294c:	89 e1       	ldi	r24, 0x19	; 25
    294e:	94 e0       	ldi	r25, 0x04	; 4
    2950:	0e 94 a8 00 	call	0x150	; 0x150 <USART_u8SendStringSynch>
    2954:	8d e0       	ldi	r24, 0x0D	; 13
    2956:	0e 94 57 00 	call	0xae	; 0xae <USART_u8SendData>
    295a:	26 c0       	rjmp	.+76     	; 0x29a8 <Child_vFan+0x122>
    295c:	80 91 9f 05 	lds	r24, 0x059F
    2960:	84 30       	cpi	r24, 0x04	; 4
    2962:	11 f5       	brne	.+68     	; 0x29a8 <Child_vFan+0x122>
    2964:	80 91 0c 06 	lds	r24, 0x060C
    2968:	84 36       	cpi	r24, 0x64	; 100
    296a:	c9 f4       	brne	.+50     	; 0x299e <Child_vFan+0x118>
    296c:	8d e0       	ldi	r24, 0x0D	; 13
    296e:	0e 94 57 00 	call	0xae	; 0xae <USART_u8SendData>
    2972:	80 91 df 05 	lds	r24, 0x05DF
    2976:	81 ff       	sbrs	r24, 1
    2978:	09 c0       	rjmp	.+18     	; 0x298c <Child_vFan+0x106>
    297a:	8a ed       	ldi	r24, 0xDA	; 218
    297c:	91 e0       	ldi	r25, 0x01	; 1
    297e:	0e 94 a8 00 	call	0x150	; 0x150 <USART_u8SendStringSynch>
    2982:	80 91 df 05 	lds	r24, 0x05DF
    2986:	8d 7f       	andi	r24, 0xFD	; 253
    2988:	80 93 df 05 	sts	0x05DF, r24
    298c:	8d e0       	ldi	r24, 0x0D	; 13
    298e:	0e 94 57 00 	call	0xae	; 0xae <USART_u8SendData>
    2992:	80 91 df 05 	lds	r24, 0x05DF
    2996:	81 60       	ori	r24, 0x01	; 1
    2998:	80 93 df 05 	sts	0x05DF, r24
    299c:	08 95       	ret
    299e:	80 91 0c 06 	lds	r24, 0x060C
    29a2:	8f 5f       	subi	r24, 0xFF	; 255
    29a4:	80 93 0c 06 	sts	0x060C, r24
    29a8:	80 91 22 06 	lds	r24, 0x0622
    29ac:	88 30       	cpi	r24, 0x08	; 8
    29ae:	09 f0       	breq	.+2      	; 0x29b2 <Child_vFan+0x12c>
    29b0:	8e cf       	rjmp	.-228    	; 0x28ce <Child_vFan+0x48>
    29b2:	08 95       	ret

000029b4 <Home_vChildren_Room_2>:
    29b4:	1f 93       	push	r17
    29b6:	86 e2       	ldi	r24, 0x26	; 38
    29b8:	94 e0       	ldi	r25, 0x04	; 4
    29ba:	0e 94 a8 00 	call	0x150	; 0x150 <USART_u8SendStringSynch>
    29be:	8d e0       	ldi	r24, 0x0D	; 13
    29c0:	0e 94 57 00 	call	0xae	; 0xae <USART_u8SendData>
    29c4:	80 e9       	ldi	r24, 0x90	; 144
    29c6:	91 e0       	ldi	r25, 0x01	; 1
    29c8:	0e 94 a8 00 	call	0x150	; 0x150 <USART_u8SendStringSynch>
    29cc:	86 ea       	ldi	r24, 0xA6	; 166
    29ce:	91 e0       	ldi	r25, 0x01	; 1
    29d0:	0e 94 a8 00 	call	0x150	; 0x150 <USART_u8SendStringSynch>
    29d4:	8d e0       	ldi	r24, 0x0D	; 13
    29d6:	0e 94 57 00 	call	0xae	; 0xae <USART_u8SendData>
    29da:	89 e1       	ldi	r24, 0x19	; 25
    29dc:	94 e0       	ldi	r25, 0x04	; 4
    29de:	0e 94 a8 00 	call	0x150	; 0x150 <USART_u8SendStringSynch>
    29e2:	8d e0       	ldi	r24, 0x0D	; 13
    29e4:	0e 94 57 00 	call	0xae	; 0xae <USART_u8SendData>
    29e8:	1f ef       	ldi	r17, 0xFF	; 255
    29ea:	82 e2       	ldi	r24, 0x22	; 34
    29ec:	96 e0       	ldi	r25, 0x06	; 6
    29ee:	0e 94 7d 00 	call	0xfa	; 0xfa <USART_u8ReceiveData>
    29f2:	80 93 9f 05 	sts	0x059F, r24
    29f6:	80 91 9f 05 	lds	r24, 0x059F
    29fa:	88 23       	and	r24, r24
    29fc:	49 f5       	brne	.+82     	; 0x2a50 <Home_vChildren_Room_2+0x9c>
    29fe:	80 91 22 06 	lds	r24, 0x0622
    2a02:	82 33       	cpi	r24, 0x32	; 50
    2a04:	99 f0       	breq	.+38     	; 0x2a2c <Home_vChildren_Room_2+0x78>
    2a06:	83 33       	cpi	r24, 0x33	; 51
    2a08:	30 f4       	brcc	.+12     	; 0x2a16 <Home_vChildren_Room_2+0x62>
    2a0a:	88 30       	cpi	r24, 0x08	; 8
    2a0c:	e9 f0       	breq	.+58     	; 0x2a48 <Home_vChildren_Room_2+0x94>
    2a0e:	81 33       	cpi	r24, 0x31	; 49
    2a10:	09 f0       	breq	.+2      	; 0x2a14 <Home_vChildren_Room_2+0x60>
    2a12:	44 c0       	rjmp	.+136    	; 0x2a9c <Home_vChildren_Room_2+0xe8>
    2a14:	04 c0       	rjmp	.+8      	; 0x2a1e <Home_vChildren_Room_2+0x6a>
    2a16:	83 33       	cpi	r24, 0x33	; 51
    2a18:	09 f0       	breq	.+2      	; 0x2a1c <Home_vChildren_Room_2+0x68>
    2a1a:	40 c0       	rjmp	.+128    	; 0x2a9c <Home_vChildren_Room_2+0xe8>
    2a1c:	10 c0       	rjmp	.+32     	; 0x2a3e <Home_vChildren_Room_2+0x8a>
    2a1e:	60 91 d9 05 	lds	r22, 0x05D9
    2a22:	70 91 da 05 	lds	r23, 0x05DA
    2a26:	80 91 db 05 	lds	r24, 0x05DB
    2a2a:	06 c0       	rjmp	.+12     	; 0x2a38 <Home_vChildren_Room_2+0x84>
    2a2c:	60 91 dc 05 	lds	r22, 0x05DC
    2a30:	70 91 dd 05 	lds	r23, 0x05DD
    2a34:	80 91 de 05 	lds	r24, 0x05DE
    2a38:	0e 94 8d 09 	call	0x131a	; 0x131a <LED_vTog>
    2a3c:	2f c0       	rjmp	.+94     	; 0x2a9c <Home_vChildren_Room_2+0xe8>
    2a3e:	0e 94 43 14 	call	0x2886	; 0x2886 <Child_vFan>
    2a42:	10 93 22 06 	sts	0x0622, r17
    2a46:	2a c0       	rjmp	.+84     	; 0x2a9c <Home_vChildren_Room_2+0xe8>
    2a48:	8d e0       	ldi	r24, 0x0D	; 13
    2a4a:	0e 94 57 00 	call	0xae	; 0xae <USART_u8SendData>
    2a4e:	26 c0       	rjmp	.+76     	; 0x2a9c <Home_vChildren_Room_2+0xe8>
    2a50:	80 91 9f 05 	lds	r24, 0x059F
    2a54:	84 30       	cpi	r24, 0x04	; 4
    2a56:	11 f5       	brne	.+68     	; 0x2a9c <Home_vChildren_Room_2+0xe8>
    2a58:	80 91 0c 06 	lds	r24, 0x060C
    2a5c:	84 36       	cpi	r24, 0x64	; 100
    2a5e:	c9 f4       	brne	.+50     	; 0x2a92 <Home_vChildren_Room_2+0xde>
    2a60:	8d e0       	ldi	r24, 0x0D	; 13
    2a62:	0e 94 57 00 	call	0xae	; 0xae <USART_u8SendData>
    2a66:	80 91 df 05 	lds	r24, 0x05DF
    2a6a:	81 ff       	sbrs	r24, 1
    2a6c:	09 c0       	rjmp	.+18     	; 0x2a80 <Home_vChildren_Room_2+0xcc>
    2a6e:	8a ed       	ldi	r24, 0xDA	; 218
    2a70:	91 e0       	ldi	r25, 0x01	; 1
    2a72:	0e 94 a8 00 	call	0x150	; 0x150 <USART_u8SendStringSynch>
    2a76:	80 91 df 05 	lds	r24, 0x05DF
    2a7a:	8d 7f       	andi	r24, 0xFD	; 253
    2a7c:	80 93 df 05 	sts	0x05DF, r24
    2a80:	8d e0       	ldi	r24, 0x0D	; 13
    2a82:	0e 94 57 00 	call	0xae	; 0xae <USART_u8SendData>
    2a86:	80 91 df 05 	lds	r24, 0x05DF
    2a8a:	81 60       	ori	r24, 0x01	; 1
    2a8c:	80 93 df 05 	sts	0x05DF, r24
    2a90:	0a c0       	rjmp	.+20     	; 0x2aa6 <Home_vChildren_Room_2+0xf2>
    2a92:	80 91 0c 06 	lds	r24, 0x060C
    2a96:	8f 5f       	subi	r24, 0xFF	; 255
    2a98:	80 93 0c 06 	sts	0x060C, r24
    2a9c:	80 91 22 06 	lds	r24, 0x0622
    2aa0:	8d 30       	cpi	r24, 0x0D	; 13
    2aa2:	09 f0       	breq	.+2      	; 0x2aa6 <Home_vChildren_Room_2+0xf2>
    2aa4:	a2 cf       	rjmp	.-188    	; 0x29ea <Home_vChildren_Room_2+0x36>
    2aa6:	1f 91       	pop	r17
    2aa8:	08 95       	ret

00002aaa <Home_vChildren_Room_1>:
    2aaa:	1f 93       	push	r17
    2aac:	81 e4       	ldi	r24, 0x41	; 65
    2aae:	94 e0       	ldi	r25, 0x04	; 4
    2ab0:	0e 94 a8 00 	call	0x150	; 0x150 <USART_u8SendStringSynch>
    2ab4:	8d e0       	ldi	r24, 0x0D	; 13
    2ab6:	0e 94 57 00 	call	0xae	; 0xae <USART_u8SendData>
    2aba:	80 e9       	ldi	r24, 0x90	; 144
    2abc:	91 e0       	ldi	r25, 0x01	; 1
    2abe:	0e 94 a8 00 	call	0x150	; 0x150 <USART_u8SendStringSynch>
    2ac2:	86 ea       	ldi	r24, 0xA6	; 166
    2ac4:	91 e0       	ldi	r25, 0x01	; 1
    2ac6:	0e 94 a8 00 	call	0x150	; 0x150 <USART_u8SendStringSynch>
    2aca:	8d e0       	ldi	r24, 0x0D	; 13
    2acc:	0e 94 57 00 	call	0xae	; 0xae <USART_u8SendData>
    2ad0:	89 e1       	ldi	r24, 0x19	; 25
    2ad2:	94 e0       	ldi	r25, 0x04	; 4
    2ad4:	0e 94 a8 00 	call	0x150	; 0x150 <USART_u8SendStringSynch>
    2ad8:	8d e0       	ldi	r24, 0x0D	; 13
    2ada:	0e 94 57 00 	call	0xae	; 0xae <USART_u8SendData>
    2ade:	1f ef       	ldi	r17, 0xFF	; 255
    2ae0:	82 e2       	ldi	r24, 0x22	; 34
    2ae2:	96 e0       	ldi	r25, 0x06	; 6
    2ae4:	0e 94 7d 00 	call	0xfa	; 0xfa <USART_u8ReceiveData>
    2ae8:	80 93 9f 05 	sts	0x059F, r24
    2aec:	80 91 9f 05 	lds	r24, 0x059F
    2af0:	88 23       	and	r24, r24
    2af2:	49 f5       	brne	.+82     	; 0x2b46 <Home_vChildren_Room_1+0x9c>
    2af4:	80 91 22 06 	lds	r24, 0x0622
    2af8:	82 33       	cpi	r24, 0x32	; 50
    2afa:	99 f0       	breq	.+38     	; 0x2b22 <Home_vChildren_Room_1+0x78>
    2afc:	83 33       	cpi	r24, 0x33	; 51
    2afe:	30 f4       	brcc	.+12     	; 0x2b0c <Home_vChildren_Room_1+0x62>
    2b00:	88 30       	cpi	r24, 0x08	; 8
    2b02:	e9 f0       	breq	.+58     	; 0x2b3e <Home_vChildren_Room_1+0x94>
    2b04:	81 33       	cpi	r24, 0x31	; 49
    2b06:	09 f0       	breq	.+2      	; 0x2b0a <Home_vChildren_Room_1+0x60>
    2b08:	44 c0       	rjmp	.+136    	; 0x2b92 <Home_vChildren_Room_1+0xe8>
    2b0a:	04 c0       	rjmp	.+8      	; 0x2b14 <Home_vChildren_Room_1+0x6a>
    2b0c:	83 33       	cpi	r24, 0x33	; 51
    2b0e:	09 f0       	breq	.+2      	; 0x2b12 <Home_vChildren_Room_1+0x68>
    2b10:	40 c0       	rjmp	.+128    	; 0x2b92 <Home_vChildren_Room_1+0xe8>
    2b12:	10 c0       	rjmp	.+32     	; 0x2b34 <Home_vChildren_Room_1+0x8a>
    2b14:	60 91 d3 05 	lds	r22, 0x05D3
    2b18:	70 91 d4 05 	lds	r23, 0x05D4
    2b1c:	80 91 d5 05 	lds	r24, 0x05D5
    2b20:	06 c0       	rjmp	.+12     	; 0x2b2e <Home_vChildren_Room_1+0x84>
    2b22:	60 91 d6 05 	lds	r22, 0x05D6
    2b26:	70 91 d7 05 	lds	r23, 0x05D7
    2b2a:	80 91 d8 05 	lds	r24, 0x05D8
    2b2e:	0e 94 8d 09 	call	0x131a	; 0x131a <LED_vTog>
    2b32:	2f c0       	rjmp	.+94     	; 0x2b92 <Home_vChildren_Room_1+0xe8>
    2b34:	0e 94 43 14 	call	0x2886	; 0x2886 <Child_vFan>
    2b38:	10 93 22 06 	sts	0x0622, r17
    2b3c:	2a c0       	rjmp	.+84     	; 0x2b92 <Home_vChildren_Room_1+0xe8>
    2b3e:	8d e0       	ldi	r24, 0x0D	; 13
    2b40:	0e 94 57 00 	call	0xae	; 0xae <USART_u8SendData>
    2b44:	26 c0       	rjmp	.+76     	; 0x2b92 <Home_vChildren_Room_1+0xe8>
    2b46:	80 91 9f 05 	lds	r24, 0x059F
    2b4a:	84 30       	cpi	r24, 0x04	; 4
    2b4c:	11 f5       	brne	.+68     	; 0x2b92 <Home_vChildren_Room_1+0xe8>
    2b4e:	80 91 0c 06 	lds	r24, 0x060C
    2b52:	84 36       	cpi	r24, 0x64	; 100
    2b54:	c9 f4       	brne	.+50     	; 0x2b88 <Home_vChildren_Room_1+0xde>
    2b56:	8d e0       	ldi	r24, 0x0D	; 13
    2b58:	0e 94 57 00 	call	0xae	; 0xae <USART_u8SendData>
    2b5c:	80 91 df 05 	lds	r24, 0x05DF
    2b60:	81 ff       	sbrs	r24, 1
    2b62:	09 c0       	rjmp	.+18     	; 0x2b76 <Home_vChildren_Room_1+0xcc>
    2b64:	8a ed       	ldi	r24, 0xDA	; 218
    2b66:	91 e0       	ldi	r25, 0x01	; 1
    2b68:	0e 94 a8 00 	call	0x150	; 0x150 <USART_u8SendStringSynch>
    2b6c:	80 91 df 05 	lds	r24, 0x05DF
    2b70:	8d 7f       	andi	r24, 0xFD	; 253
    2b72:	80 93 df 05 	sts	0x05DF, r24
    2b76:	8d e0       	ldi	r24, 0x0D	; 13
    2b78:	0e 94 57 00 	call	0xae	; 0xae <USART_u8SendData>
    2b7c:	80 91 df 05 	lds	r24, 0x05DF
    2b80:	81 60       	ori	r24, 0x01	; 1
    2b82:	80 93 df 05 	sts	0x05DF, r24
    2b86:	0a c0       	rjmp	.+20     	; 0x2b9c <Home_vChildren_Room_1+0xf2>
    2b88:	80 91 0c 06 	lds	r24, 0x060C
    2b8c:	8f 5f       	subi	r24, 0xFF	; 255
    2b8e:	80 93 0c 06 	sts	0x060C, r24
    2b92:	80 91 22 06 	lds	r24, 0x0622
    2b96:	88 30       	cpi	r24, 0x08	; 8
    2b98:	09 f0       	breq	.+2      	; 0x2b9c <Home_vChildren_Room_1+0xf2>
    2b9a:	a2 cf       	rjmp	.-188    	; 0x2ae0 <Home_vChildren_Room_1+0x36>
    2b9c:	1f 91       	pop	r17
    2b9e:	08 95       	ret

00002ba0 <Bed_vFan>:
    2ba0:	82 e5       	ldi	r24, 0x52	; 82
    2ba2:	93 e0       	ldi	r25, 0x03	; 3
    2ba4:	0e 94 a8 00 	call	0x150	; 0x150 <USART_u8SendStringSynch>
    2ba8:	8d e0       	ldi	r24, 0x0D	; 13
    2baa:	0e 94 57 00 	call	0xae	; 0xae <USART_u8SendData>
    2bae:	81 e6       	ldi	r24, 0x61	; 97
    2bb0:	93 e0       	ldi	r25, 0x03	; 3
    2bb2:	0e 94 a8 00 	call	0x150	; 0x150 <USART_u8SendStringSynch>
    2bb6:	87 e7       	ldi	r24, 0x77	; 119
    2bb8:	93 e0       	ldi	r25, 0x03	; 3
    2bba:	0e 94 a8 00 	call	0x150	; 0x150 <USART_u8SendStringSynch>
    2bbe:	8d e0       	ldi	r24, 0x0D	; 13
    2bc0:	0e 94 57 00 	call	0xae	; 0xae <USART_u8SendData>
    2bc4:	82 e8       	ldi	r24, 0x82	; 130
    2bc6:	93 e0       	ldi	r25, 0x03	; 3
    2bc8:	0e 94 a8 00 	call	0x150	; 0x150 <USART_u8SendStringSynch>
    2bcc:	88 e9       	ldi	r24, 0x98	; 152
    2bce:	93 e0       	ldi	r25, 0x03	; 3
    2bd0:	0e 94 a8 00 	call	0x150	; 0x150 <USART_u8SendStringSynch>
    2bd4:	8d e0       	ldi	r24, 0x0D	; 13
    2bd6:	0e 94 57 00 	call	0xae	; 0xae <USART_u8SendData>
    2bda:	83 ea       	ldi	r24, 0xA3	; 163
    2bdc:	93 e0       	ldi	r25, 0x03	; 3
    2bde:	0e 94 a8 00 	call	0x150	; 0x150 <USART_u8SendStringSynch>
    2be2:	8d e0       	ldi	r24, 0x0D	; 13
    2be4:	0e 94 57 00 	call	0xae	; 0xae <USART_u8SendData>
    2be8:	82 e2       	ldi	r24, 0x22	; 34
    2bea:	96 e0       	ldi	r25, 0x06	; 6
    2bec:	0e 94 7d 00 	call	0xfa	; 0xfa <USART_u8ReceiveData>
    2bf0:	80 93 9f 05 	sts	0x059F, r24
    2bf4:	80 91 9f 05 	lds	r24, 0x059F
    2bf8:	88 23       	and	r24, r24
    2bfa:	e9 f5       	brne	.+122    	; 0x2c76 <Bed_vFan+0xd6>
    2bfc:	80 91 22 06 	lds	r24, 0x0622
    2c00:	83 33       	cpi	r24, 0x33	; 51
    2c02:	a1 f0       	breq	.+40     	; 0x2c2c <Bed_vFan+0x8c>
    2c04:	84 33       	cpi	r24, 0x34	; 52
    2c06:	40 f4       	brcc	.+16     	; 0x2c18 <Bed_vFan+0x78>
    2c08:	81 33       	cpi	r24, 0x31	; 49
    2c0a:	61 f0       	breq	.+24     	; 0x2c24 <Bed_vFan+0x84>
    2c0c:	82 33       	cpi	r24, 0x32	; 50
    2c0e:	60 f4       	brcc	.+24     	; 0x2c28 <Bed_vFan+0x88>
    2c10:	88 30       	cpi	r24, 0x08	; 8
    2c12:	09 f0       	breq	.+2      	; 0x2c16 <Bed_vFan+0x76>
    2c14:	56 c0       	rjmp	.+172    	; 0x2cc2 <Bed_vFan+0x122>
    2c16:	12 c0       	rjmp	.+36     	; 0x2c3c <Bed_vFan+0x9c>
    2c18:	84 33       	cpi	r24, 0x34	; 52
    2c1a:	51 f0       	breq	.+20     	; 0x2c30 <Bed_vFan+0x90>
    2c1c:	85 33       	cpi	r24, 0x35	; 53
    2c1e:	09 f0       	breq	.+2      	; 0x2c22 <Bed_vFan+0x82>
    2c20:	50 c0       	rjmp	.+160    	; 0x2cc2 <Bed_vFan+0x122>
    2c22:	08 c0       	rjmp	.+16     	; 0x2c34 <Bed_vFan+0x94>
    2c24:	80 e0       	ldi	r24, 0x00	; 0
    2c26:	07 c0       	rjmp	.+14     	; 0x2c36 <Bed_vFan+0x96>
    2c28:	8f e3       	ldi	r24, 0x3F	; 63
    2c2a:	05 c0       	rjmp	.+10     	; 0x2c36 <Bed_vFan+0x96>
    2c2c:	8e e7       	ldi	r24, 0x7E	; 126
    2c2e:	03 c0       	rjmp	.+6      	; 0x2c36 <Bed_vFan+0x96>
    2c30:	8d eb       	ldi	r24, 0xBD	; 189
    2c32:	01 c0       	rjmp	.+2      	; 0x2c36 <Bed_vFan+0x96>
    2c34:	8f ef       	ldi	r24, 0xFF	; 255
    2c36:	0e 94 10 02 	call	0x420	; 0x420 <TIMER0_vSetCTC>
    2c3a:	43 c0       	rjmp	.+134    	; 0x2cc2 <Bed_vFan+0x122>
    2c3c:	8d e0       	ldi	r24, 0x0D	; 13
    2c3e:	0e 94 57 00 	call	0xae	; 0xae <USART_u8SendData>
    2c42:	8c e5       	ldi	r24, 0x5C	; 92
    2c44:	94 e0       	ldi	r25, 0x04	; 4
    2c46:	0e 94 a8 00 	call	0x150	; 0x150 <USART_u8SendStringSynch>
    2c4a:	8d e0       	ldi	r24, 0x0D	; 13
    2c4c:	0e 94 57 00 	call	0xae	; 0xae <USART_u8SendData>
    2c50:	80 e9       	ldi	r24, 0x90	; 144
    2c52:	91 e0       	ldi	r25, 0x01	; 1
    2c54:	0e 94 a8 00 	call	0x150	; 0x150 <USART_u8SendStringSynch>
    2c58:	86 ea       	ldi	r24, 0xA6	; 166
    2c5a:	91 e0       	ldi	r25, 0x01	; 1
    2c5c:	0e 94 a8 00 	call	0x150	; 0x150 <USART_u8SendStringSynch>
    2c60:	8d e0       	ldi	r24, 0x0D	; 13
    2c62:	0e 94 57 00 	call	0xae	; 0xae <USART_u8SendData>
    2c66:	80 e7       	ldi	r24, 0x70	; 112
    2c68:	94 e0       	ldi	r25, 0x04	; 4
    2c6a:	0e 94 a8 00 	call	0x150	; 0x150 <USART_u8SendStringSynch>
    2c6e:	8d e0       	ldi	r24, 0x0D	; 13
    2c70:	0e 94 57 00 	call	0xae	; 0xae <USART_u8SendData>
    2c74:	26 c0       	rjmp	.+76     	; 0x2cc2 <Bed_vFan+0x122>
    2c76:	80 91 9f 05 	lds	r24, 0x059F
    2c7a:	84 30       	cpi	r24, 0x04	; 4
    2c7c:	11 f5       	brne	.+68     	; 0x2cc2 <Bed_vFan+0x122>
    2c7e:	80 91 0c 06 	lds	r24, 0x060C
    2c82:	84 36       	cpi	r24, 0x64	; 100
    2c84:	c9 f4       	brne	.+50     	; 0x2cb8 <Bed_vFan+0x118>
    2c86:	8d e0       	ldi	r24, 0x0D	; 13
    2c88:	0e 94 57 00 	call	0xae	; 0xae <USART_u8SendData>
    2c8c:	80 91 df 05 	lds	r24, 0x05DF
    2c90:	81 ff       	sbrs	r24, 1
    2c92:	09 c0       	rjmp	.+18     	; 0x2ca6 <Bed_vFan+0x106>
    2c94:	8a ed       	ldi	r24, 0xDA	; 218
    2c96:	91 e0       	ldi	r25, 0x01	; 1
    2c98:	0e 94 a8 00 	call	0x150	; 0x150 <USART_u8SendStringSynch>
    2c9c:	80 91 df 05 	lds	r24, 0x05DF
    2ca0:	8d 7f       	andi	r24, 0xFD	; 253
    2ca2:	80 93 df 05 	sts	0x05DF, r24
    2ca6:	8d e0       	ldi	r24, 0x0D	; 13
    2ca8:	0e 94 57 00 	call	0xae	; 0xae <USART_u8SendData>
    2cac:	80 91 df 05 	lds	r24, 0x05DF
    2cb0:	81 60       	ori	r24, 0x01	; 1
    2cb2:	80 93 df 05 	sts	0x05DF, r24
    2cb6:	08 95       	ret
    2cb8:	80 91 0c 06 	lds	r24, 0x060C
    2cbc:	8f 5f       	subi	r24, 0xFF	; 255
    2cbe:	80 93 0c 06 	sts	0x060C, r24
    2cc2:	80 91 22 06 	lds	r24, 0x0622
    2cc6:	88 30       	cpi	r24, 0x08	; 8
    2cc8:	09 f0       	breq	.+2      	; 0x2ccc <Bed_vFan+0x12c>
    2cca:	8e cf       	rjmp	.-228    	; 0x2be8 <Bed_vFan+0x48>
    2ccc:	08 95       	ret

00002cce <Home_vBed_Room>:
    2cce:	1f 93       	push	r17
    2cd0:	8c e5       	ldi	r24, 0x5C	; 92
    2cd2:	94 e0       	ldi	r25, 0x04	; 4
    2cd4:	0e 94 a8 00 	call	0x150	; 0x150 <USART_u8SendStringSynch>
    2cd8:	8d e0       	ldi	r24, 0x0D	; 13
    2cda:	0e 94 57 00 	call	0xae	; 0xae <USART_u8SendData>
    2cde:	80 e9       	ldi	r24, 0x90	; 144
    2ce0:	91 e0       	ldi	r25, 0x01	; 1
    2ce2:	0e 94 a8 00 	call	0x150	; 0x150 <USART_u8SendStringSynch>
    2ce6:	86 ea       	ldi	r24, 0xA6	; 166
    2ce8:	91 e0       	ldi	r25, 0x01	; 1
    2cea:	0e 94 a8 00 	call	0x150	; 0x150 <USART_u8SendStringSynch>
    2cee:	8d e0       	ldi	r24, 0x0D	; 13
    2cf0:	0e 94 57 00 	call	0xae	; 0xae <USART_u8SendData>
    2cf4:	80 e7       	ldi	r24, 0x70	; 112
    2cf6:	94 e0       	ldi	r25, 0x04	; 4
    2cf8:	0e 94 a8 00 	call	0x150	; 0x150 <USART_u8SendStringSynch>
    2cfc:	8d e0       	ldi	r24, 0x0D	; 13
    2cfe:	0e 94 57 00 	call	0xae	; 0xae <USART_u8SendData>
    2d02:	1f ef       	ldi	r17, 0xFF	; 255
    2d04:	82 e2       	ldi	r24, 0x22	; 34
    2d06:	96 e0       	ldi	r25, 0x06	; 6
    2d08:	0e 94 7d 00 	call	0xfa	; 0xfa <USART_u8ReceiveData>
    2d0c:	80 93 9f 05 	sts	0x059F, r24
    2d10:	80 91 9f 05 	lds	r24, 0x059F
    2d14:	88 23       	and	r24, r24
    2d16:	49 f5       	brne	.+82     	; 0x2d6a <Home_vBed_Room+0x9c>
    2d18:	80 91 22 06 	lds	r24, 0x0622
    2d1c:	82 33       	cpi	r24, 0x32	; 50
    2d1e:	99 f0       	breq	.+38     	; 0x2d46 <Home_vBed_Room+0x78>
    2d20:	83 33       	cpi	r24, 0x33	; 51
    2d22:	30 f4       	brcc	.+12     	; 0x2d30 <Home_vBed_Room+0x62>
    2d24:	88 30       	cpi	r24, 0x08	; 8
    2d26:	e9 f0       	breq	.+58     	; 0x2d62 <Home_vBed_Room+0x94>
    2d28:	81 33       	cpi	r24, 0x31	; 49
    2d2a:	09 f0       	breq	.+2      	; 0x2d2e <Home_vBed_Room+0x60>
    2d2c:	44 c0       	rjmp	.+136    	; 0x2db6 <Home_vBed_Room+0xe8>
    2d2e:	04 c0       	rjmp	.+8      	; 0x2d38 <Home_vBed_Room+0x6a>
    2d30:	83 33       	cpi	r24, 0x33	; 51
    2d32:	09 f0       	breq	.+2      	; 0x2d36 <Home_vBed_Room+0x68>
    2d34:	40 c0       	rjmp	.+128    	; 0x2db6 <Home_vBed_Room+0xe8>
    2d36:	10 c0       	rjmp	.+32     	; 0x2d58 <Home_vBed_Room+0x8a>
    2d38:	60 91 a6 05 	lds	r22, 0x05A6
    2d3c:	70 91 a7 05 	lds	r23, 0x05A7
    2d40:	80 91 a8 05 	lds	r24, 0x05A8
    2d44:	06 c0       	rjmp	.+12     	; 0x2d52 <Home_vBed_Room+0x84>
    2d46:	60 91 a9 05 	lds	r22, 0x05A9
    2d4a:	70 91 aa 05 	lds	r23, 0x05AA
    2d4e:	80 91 ab 05 	lds	r24, 0x05AB
    2d52:	0e 94 8d 09 	call	0x131a	; 0x131a <LED_vTog>
    2d56:	2f c0       	rjmp	.+94     	; 0x2db6 <Home_vBed_Room+0xe8>
    2d58:	0e 94 d0 15 	call	0x2ba0	; 0x2ba0 <Bed_vFan>
    2d5c:	10 93 22 06 	sts	0x0622, r17
    2d60:	2a c0       	rjmp	.+84     	; 0x2db6 <Home_vBed_Room+0xe8>
    2d62:	8d e0       	ldi	r24, 0x0D	; 13
    2d64:	0e 94 57 00 	call	0xae	; 0xae <USART_u8SendData>
    2d68:	26 c0       	rjmp	.+76     	; 0x2db6 <Home_vBed_Room+0xe8>
    2d6a:	80 91 9f 05 	lds	r24, 0x059F
    2d6e:	84 30       	cpi	r24, 0x04	; 4
    2d70:	11 f5       	brne	.+68     	; 0x2db6 <Home_vBed_Room+0xe8>
    2d72:	80 91 0c 06 	lds	r24, 0x060C
    2d76:	84 36       	cpi	r24, 0x64	; 100
    2d78:	c9 f4       	brne	.+50     	; 0x2dac <Home_vBed_Room+0xde>
    2d7a:	8d e0       	ldi	r24, 0x0D	; 13
    2d7c:	0e 94 57 00 	call	0xae	; 0xae <USART_u8SendData>
    2d80:	80 91 df 05 	lds	r24, 0x05DF
    2d84:	81 ff       	sbrs	r24, 1
    2d86:	09 c0       	rjmp	.+18     	; 0x2d9a <Home_vBed_Room+0xcc>
    2d88:	8a ed       	ldi	r24, 0xDA	; 218
    2d8a:	91 e0       	ldi	r25, 0x01	; 1
    2d8c:	0e 94 a8 00 	call	0x150	; 0x150 <USART_u8SendStringSynch>
    2d90:	80 91 df 05 	lds	r24, 0x05DF
    2d94:	8d 7f       	andi	r24, 0xFD	; 253
    2d96:	80 93 df 05 	sts	0x05DF, r24
    2d9a:	8d e0       	ldi	r24, 0x0D	; 13
    2d9c:	0e 94 57 00 	call	0xae	; 0xae <USART_u8SendData>
    2da0:	80 91 df 05 	lds	r24, 0x05DF
    2da4:	81 60       	ori	r24, 0x01	; 1
    2da6:	80 93 df 05 	sts	0x05DF, r24
    2daa:	0a c0       	rjmp	.+20     	; 0x2dc0 <Home_vBed_Room+0xf2>
    2dac:	80 91 0c 06 	lds	r24, 0x060C
    2db0:	8f 5f       	subi	r24, 0xFF	; 255
    2db2:	80 93 0c 06 	sts	0x060C, r24
    2db6:	80 91 22 06 	lds	r24, 0x0622
    2dba:	88 30       	cpi	r24, 0x08	; 8
    2dbc:	09 f0       	breq	.+2      	; 0x2dc0 <Home_vBed_Room+0xf2>
    2dbe:	a2 cf       	rjmp	.-188    	; 0x2d04 <Home_vBed_Room+0x36>
    2dc0:	1f 91       	pop	r17
    2dc2:	08 95       	ret

00002dc4 <main>:
    2dc4:	1f 93       	push	r17
    2dc6:	80 e0       	ldi	r24, 0x00	; 0
    2dc8:	6f ef       	ldi	r22, 0xFF	; 255
    2dca:	0e 94 78 08 	call	0x10f0	; 0x10f0 <DIO_enumSetPortDir>
    2dce:	82 e0       	ldi	r24, 0x02	; 2
    2dd0:	6f ef       	ldi	r22, 0xFF	; 255
    2dd2:	0e 94 78 08 	call	0x10f0	; 0x10f0 <DIO_enumSetPortDir>
    2dd6:	83 e0       	ldi	r24, 0x03	; 3
    2dd8:	6e ef       	ldi	r22, 0xFE	; 254
    2dda:	0e 94 78 08 	call	0x10f0	; 0x10f0 <DIO_enumSetPortDir>
    2dde:	81 e0       	ldi	r24, 0x01	; 1
    2de0:	60 e0       	ldi	r22, 0x00	; 0
    2de2:	41 e0       	ldi	r20, 0x01	; 1
    2de4:	0e 94 82 06 	call	0xd04	; 0xd04 <DIO_enumSetPinDir>
    2de8:	81 e0       	ldi	r24, 0x01	; 1
    2dea:	61 e0       	ldi	r22, 0x01	; 1
    2dec:	41 e0       	ldi	r20, 0x01	; 1
    2dee:	0e 94 82 06 	call	0xd04	; 0xd04 <DIO_enumSetPinDir>
    2df2:	0e 94 49 00 	call	0x92	; 0x92 <USART_vInit>
    2df6:	0e 94 f5 04 	call	0x9ea	; 0x9ea <SPI_vInit>
    2dfa:	0e 94 8d 0c 	call	0x191a	; 0x191a <EEPROM_vInit>
    2dfe:	81 e0       	ldi	r24, 0x01	; 1
    2e00:	63 e0       	ldi	r22, 0x03	; 3
    2e02:	41 e0       	ldi	r20, 0x01	; 1
    2e04:	0e 94 82 06 	call	0xd04	; 0xd04 <DIO_enumSetPinDir>
    2e08:	0e 94 ab 01 	call	0x356	; 0x356 <TIMER0_vInit>
    2e0c:	83 e0       	ldi	r24, 0x03	; 3
    2e0e:	67 e0       	ldi	r22, 0x07	; 7
    2e10:	41 e0       	ldi	r20, 0x01	; 1
    2e12:	0e 94 82 06 	call	0xd04	; 0xd04 <DIO_enumSetPinDir>
    2e16:	0e 94 f5 01 	call	0x3ea	; 0x3ea <TIMER2_vInit>
    2e1a:	0e 94 09 05 	call	0xa12	; 0xa12 <GIE_vEnable>
    2e1e:	85 e0       	ldi	r24, 0x05	; 5
    2e20:	0e 94 a7 05 	call	0xb4e	; 0xb4e <EXTI_vEnableInterrupt>
    2e24:	83 e0       	ldi	r24, 0x03	; 3
    2e26:	65 e0       	ldi	r22, 0x05	; 5
    2e28:	0e 94 15 05 	call	0xa2a	; 0xa2a <EXTI_vSetSignal>
    2e2c:	81 ee       	ldi	r24, 0xE1	; 225
    2e2e:	9c e0       	ldi	r25, 0x0C	; 12
    2e30:	65 e0       	ldi	r22, 0x05	; 5
    2e32:	0e 94 d7 05 	call	0xbae	; 0xbae <EXTI_vSetCallBack>
    2e36:	81 e0       	ldi	r24, 0x01	; 1
    2e38:	62 e0       	ldi	r22, 0x02	; 2
    2e3a:	40 e0       	ldi	r20, 0x00	; 0
    2e3c:	0e 94 82 06 	call	0xd04	; 0xd04 <DIO_enumSetPinDir>
    2e40:	1a e0       	ldi	r17, 0x0A	; 10
    2e42:	80 91 df 05 	lds	r24, 0x05DF
    2e46:	80 ff       	sbrs	r24, 0
    2e48:	2c c0       	rjmp	.+88     	; 0x2ea2 <main+0xde>
    2e4a:	10 92 0c 06 	sts	0x060C, r1
    2e4e:	82 60       	ori	r24, 0x02	; 2
    2e50:	80 93 df 05 	sts	0x05DF, r24
    2e54:	8b e7       	ldi	r24, 0x7B	; 123
    2e56:	94 e0       	ldi	r25, 0x04	; 4
    2e58:	0e 94 a8 00 	call	0x150	; 0x150 <USART_u8SendStringSynch>
    2e5c:	8d e0       	ldi	r24, 0x0D	; 13
    2e5e:	0e 94 57 00 	call	0xae	; 0xae <USART_u8SendData>
    2e62:	82 e2       	ldi	r24, 0x22	; 34
    2e64:	96 e0       	ldi	r25, 0x06	; 6
    2e66:	0e 94 7d 00 	call	0xfa	; 0xfa <USART_u8ReceiveData>
    2e6a:	80 93 9f 05 	sts	0x059F, r24
    2e6e:	80 91 9f 05 	lds	r24, 0x059F
    2e72:	88 23       	and	r24, r24
    2e74:	b1 f7       	brne	.-20     	; 0x2e62 <main+0x9e>
    2e76:	80 91 22 06 	lds	r24, 0x0622
    2e7a:	8d 30       	cpi	r24, 0x0D	; 13
    2e7c:	91 f7       	brne	.-28     	; 0x2e62 <main+0x9e>
    2e7e:	0e 94 3b 0c 	call	0x1876	; 0x1876 <Sign_In>
    2e82:	86 e9       	ldi	r24, 0x96	; 150
    2e84:	94 e0       	ldi	r25, 0x04	; 4
    2e86:	0e 94 a8 00 	call	0x150	; 0x150 <USART_u8SendStringSynch>
    2e8a:	83 e2       	ldi	r24, 0x23	; 35
    2e8c:	96 e0       	ldi	r25, 0x06	; 6
    2e8e:	0e 94 a8 00 	call	0x150	; 0x150 <USART_u8SendStringSynch>
    2e92:	8d e0       	ldi	r24, 0x0D	; 13
    2e94:	0e 94 57 00 	call	0xae	; 0xae <USART_u8SendData>
    2e98:	80 91 df 05 	lds	r24, 0x05DF
    2e9c:	8e 7f       	andi	r24, 0xFE	; 254
    2e9e:	80 93 df 05 	sts	0x05DF, r24
    2ea2:	8f e9       	ldi	r24, 0x9F	; 159
    2ea4:	94 e0       	ldi	r25, 0x04	; 4
    2ea6:	0e 94 a8 00 	call	0x150	; 0x150 <USART_u8SendStringSynch>
    2eaa:	8d e0       	ldi	r24, 0x0D	; 13
    2eac:	0e 94 57 00 	call	0xae	; 0xae <USART_u8SendData>
    2eb0:	8d ea       	ldi	r24, 0xAD	; 173
    2eb2:	94 e0       	ldi	r25, 0x04	; 4
    2eb4:	0e 94 a8 00 	call	0x150	; 0x150 <USART_u8SendStringSynch>
    2eb8:	83 ec       	ldi	r24, 0xC3	; 195
    2eba:	94 e0       	ldi	r25, 0x04	; 4
    2ebc:	0e 94 a8 00 	call	0x150	; 0x150 <USART_u8SendStringSynch>
    2ec0:	8d e0       	ldi	r24, 0x0D	; 13
    2ec2:	0e 94 57 00 	call	0xae	; 0xae <USART_u8SendData>
    2ec6:	81 ed       	ldi	r24, 0xD1	; 209
    2ec8:	94 e0       	ldi	r25, 0x04	; 4
    2eca:	0e 94 a8 00 	call	0x150	; 0x150 <USART_u8SendStringSynch>
    2ece:	87 ee       	ldi	r24, 0xE7	; 231
    2ed0:	94 e0       	ldi	r25, 0x04	; 4
    2ed2:	0e 94 a8 00 	call	0x150	; 0x150 <USART_u8SendStringSynch>
    2ed6:	8d e0       	ldi	r24, 0x0D	; 13
    2ed8:	0e 94 57 00 	call	0xae	; 0xae <USART_u8SendData>
    2edc:	84 ef       	ldi	r24, 0xF4	; 244
    2ede:	94 e0       	ldi	r25, 0x04	; 4
    2ee0:	0e 94 a8 00 	call	0x150	; 0x150 <USART_u8SendStringSynch>
    2ee4:	8a e0       	ldi	r24, 0x0A	; 10
    2ee6:	95 e0       	ldi	r25, 0x05	; 5
    2ee8:	0e 94 a8 00 	call	0x150	; 0x150 <USART_u8SendStringSynch>
    2eec:	8d e0       	ldi	r24, 0x0D	; 13
    2eee:	0e 94 57 00 	call	0xae	; 0xae <USART_u8SendData>
    2ef2:	8e e1       	ldi	r24, 0x1E	; 30
    2ef4:	95 e0       	ldi	r25, 0x05	; 5
    2ef6:	0e 94 a8 00 	call	0x150	; 0x150 <USART_u8SendStringSynch>
    2efa:	84 e3       	ldi	r24, 0x34	; 52
    2efc:	95 e0       	ldi	r25, 0x05	; 5
    2efe:	0e 94 a8 00 	call	0x150	; 0x150 <USART_u8SendStringSynch>
    2f02:	8d e0       	ldi	r24, 0x0D	; 13
    2f04:	0e 94 57 00 	call	0xae	; 0xae <USART_u8SendData>
    2f08:	80 e4       	ldi	r24, 0x40	; 64
    2f0a:	95 e0       	ldi	r25, 0x05	; 5
    2f0c:	0e 94 a8 00 	call	0x150	; 0x150 <USART_u8SendStringSynch>
    2f10:	86 e5       	ldi	r24, 0x56	; 86
    2f12:	95 e0       	ldi	r25, 0x05	; 5
    2f14:	0e 94 a8 00 	call	0x150	; 0x150 <USART_u8SendStringSynch>
    2f18:	8d e0       	ldi	r24, 0x0D	; 13
    2f1a:	0e 94 57 00 	call	0xae	; 0xae <USART_u8SendData>
    2f1e:	82 e6       	ldi	r24, 0x62	; 98
    2f20:	95 e0       	ldi	r25, 0x05	; 5
    2f22:	0e 94 a8 00 	call	0x150	; 0x150 <USART_u8SendStringSynch>
    2f26:	88 e7       	ldi	r24, 0x78	; 120
    2f28:	95 e0       	ldi	r25, 0x05	; 5
    2f2a:	0e 94 a8 00 	call	0x150	; 0x150 <USART_u8SendStringSynch>
    2f2e:	8d e0       	ldi	r24, 0x0D	; 13
    2f30:	0e 94 57 00 	call	0xae	; 0xae <USART_u8SendData>
    2f34:	84 e8       	ldi	r24, 0x84	; 132
    2f36:	95 e0       	ldi	r25, 0x05	; 5
    2f38:	0e 94 a8 00 	call	0x150	; 0x150 <USART_u8SendStringSynch>
    2f3c:	8d e0       	ldi	r24, 0x0D	; 13
    2f3e:	0e 94 57 00 	call	0xae	; 0xae <USART_u8SendData>
    2f42:	10 92 0a 06 	sts	0x060A, r1
    2f46:	10 92 0b 06 	sts	0x060B, r1
    2f4a:	82 e2       	ldi	r24, 0x22	; 34
    2f4c:	96 e0       	ldi	r25, 0x06	; 6
    2f4e:	0e 94 7d 00 	call	0xfa	; 0xfa <USART_u8ReceiveData>
    2f52:	80 93 9f 05 	sts	0x059F, r24
    2f56:	80 91 9f 05 	lds	r24, 0x059F
    2f5a:	88 23       	and	r24, r24
    2f5c:	99 f4       	brne	.+38     	; 0x2f84 <main+0x1c0>
    2f5e:	80 91 0a 06 	lds	r24, 0x060A
    2f62:	88 23       	and	r24, r24
    2f64:	79 f4       	brne	.+30     	; 0x2f84 <main+0x1c0>
    2f66:	80 91 22 06 	lds	r24, 0x0622
    2f6a:	8d 30       	cpi	r24, 0x0D	; 13
    2f6c:	41 f0       	breq	.+16     	; 0x2f7e <main+0x1ba>
    2f6e:	80 91 22 06 	lds	r24, 0x0622
    2f72:	8f 30       	cpi	r24, 0x0F	; 15
    2f74:	21 f0       	breq	.+8      	; 0x2f7e <main+0x1ba>
    2f76:	80 91 22 06 	lds	r24, 0x0622
    2f7a:	88 30       	cpi	r24, 0x08	; 8
    2f7c:	09 f5       	brne	.+66     	; 0x2fc0 <main+0x1fc>
    2f7e:	10 92 0c 06 	sts	0x060C, r1
    2f82:	e3 cf       	rjmp	.-58     	; 0x2f4a <main+0x186>
    2f84:	80 91 9f 05 	lds	r24, 0x059F
    2f88:	88 23       	and	r24, r24
    2f8a:	61 f5       	brne	.+88     	; 0x2fe4 <main+0x220>
    2f8c:	80 91 0a 06 	lds	r24, 0x060A
    2f90:	83 30       	cpi	r24, 0x03	; 3
    2f92:	40 f5       	brcc	.+80     	; 0x2fe4 <main+0x220>
    2f94:	80 91 22 06 	lds	r24, 0x0622
    2f98:	8d 30       	cpi	r24, 0x0D	; 13
    2f9a:	a1 f1       	breq	.+104    	; 0x3004 <main+0x240>
    2f9c:	80 91 22 06 	lds	r24, 0x0622
    2fa0:	8f 30       	cpi	r24, 0x0F	; 15
    2fa2:	81 f1       	breq	.+96     	; 0x3004 <main+0x240>
    2fa4:	80 91 22 06 	lds	r24, 0x0622
    2fa8:	88 30       	cpi	r24, 0x08	; 8
    2faa:	51 f4       	brne	.+20     	; 0x2fc0 <main+0x1fc>
    2fac:	10 92 0c 06 	sts	0x060C, r1
    2fb0:	80 91 0b 06 	lds	r24, 0x060B
    2fb4:	6a e0       	ldi	r22, 0x0A	; 10
    2fb6:	0e 94 a0 18 	call	0x3140	; 0x3140 <__udivmodqi4>
    2fba:	80 93 0b 06 	sts	0x060B, r24
    2fbe:	2b c0       	rjmp	.+86     	; 0x3016 <main+0x252>
    2fc0:	10 92 0c 06 	sts	0x060C, r1
    2fc4:	80 91 22 06 	lds	r24, 0x0622
    2fc8:	80 53       	subi	r24, 0x30	; 48
    2fca:	80 93 22 06 	sts	0x0622, r24
    2fce:	80 91 0b 06 	lds	r24, 0x060B
    2fd2:	20 91 22 06 	lds	r18, 0x0622
    2fd6:	81 9f       	mul	r24, r17
    2fd8:	c0 01       	movw	r24, r0
    2fda:	11 24       	eor	r1, r1
    2fdc:	28 0f       	add	r18, r24
    2fde:	20 93 0b 06 	sts	0x060B, r18
    2fe2:	1f c0       	rjmp	.+62     	; 0x3022 <main+0x25e>
    2fe4:	80 91 9f 05 	lds	r24, 0x059F
    2fe8:	88 23       	and	r24, r24
    2fea:	09 f5       	brne	.+66     	; 0x302e <main+0x26a>
    2fec:	80 91 0a 06 	lds	r24, 0x060A
    2ff0:	83 30       	cpi	r24, 0x03	; 3
    2ff2:	e8 f0       	brcs	.+58     	; 0x302e <main+0x26a>
    2ff4:	80 91 22 06 	lds	r24, 0x0622
    2ff8:	8d 30       	cpi	r24, 0x0D	; 13
    2ffa:	21 f0       	breq	.+8      	; 0x3004 <main+0x240>
    2ffc:	80 91 22 06 	lds	r24, 0x0622
    3000:	8f 30       	cpi	r24, 0x0F	; 15
    3002:	19 f4       	brne	.+6      	; 0x300a <main+0x246>
    3004:	10 92 0c 06 	sts	0x060C, r1
    3008:	3a c0       	rjmp	.+116    	; 0x307e <main+0x2ba>
    300a:	80 91 22 06 	lds	r24, 0x0622
    300e:	88 30       	cpi	r24, 0x08	; 8
    3010:	31 f4       	brne	.+12     	; 0x301e <main+0x25a>
    3012:	10 92 0c 06 	sts	0x060C, r1
    3016:	80 91 0a 06 	lds	r24, 0x060A
    301a:	81 50       	subi	r24, 0x01	; 1
    301c:	05 c0       	rjmp	.+10     	; 0x3028 <main+0x264>
    301e:	10 92 0c 06 	sts	0x060C, r1
    3022:	80 91 0a 06 	lds	r24, 0x060A
    3026:	8f 5f       	subi	r24, 0xFF	; 255
    3028:	80 93 0a 06 	sts	0x060A, r24
    302c:	8e cf       	rjmp	.-228    	; 0x2f4a <main+0x186>
    302e:	80 91 9f 05 	lds	r24, 0x059F
    3032:	84 30       	cpi	r24, 0x04	; 4
    3034:	09 f0       	breq	.+2      	; 0x3038 <main+0x274>
    3036:	89 cf       	rjmp	.-238    	; 0x2f4a <main+0x186>
    3038:	80 91 0c 06 	lds	r24, 0x060C
    303c:	84 36       	cpi	r24, 0x64	; 100
    303e:	c9 f4       	brne	.+50     	; 0x3072 <main+0x2ae>
    3040:	8d e0       	ldi	r24, 0x0D	; 13
    3042:	0e 94 57 00 	call	0xae	; 0xae <USART_u8SendData>
    3046:	80 91 df 05 	lds	r24, 0x05DF
    304a:	81 ff       	sbrs	r24, 1
    304c:	09 c0       	rjmp	.+18     	; 0x3060 <main+0x29c>
    304e:	8a ed       	ldi	r24, 0xDA	; 218
    3050:	91 e0       	ldi	r25, 0x01	; 1
    3052:	0e 94 a8 00 	call	0x150	; 0x150 <USART_u8SendStringSynch>
    3056:	80 91 df 05 	lds	r24, 0x05DF
    305a:	8d 7f       	andi	r24, 0xFD	; 253
    305c:	80 93 df 05 	sts	0x05DF, r24
    3060:	8d e0       	ldi	r24, 0x0D	; 13
    3062:	0e 94 57 00 	call	0xae	; 0xae <USART_u8SendData>
    3066:	80 91 df 05 	lds	r24, 0x05DF
    306a:	81 60       	ori	r24, 0x01	; 1
    306c:	80 93 df 05 	sts	0x05DF, r24
    3070:	06 c0       	rjmp	.+12     	; 0x307e <main+0x2ba>
    3072:	80 91 0c 06 	lds	r24, 0x060C
    3076:	8f 5f       	subi	r24, 0xFF	; 255
    3078:	80 93 0c 06 	sts	0x060C, r24
    307c:	66 cf       	rjmp	.-308    	; 0x2f4a <main+0x186>
    307e:	80 91 0b 06 	lds	r24, 0x060B
    3082:	8e 30       	cpi	r24, 0x0E	; 14
    3084:	38 f0       	brcs	.+14     	; 0x3094 <main+0x2d0>
    3086:	8d e8       	ldi	r24, 0x8D	; 141
    3088:	95 e0       	ldi	r25, 0x05	; 5
    308a:	0e 94 a8 00 	call	0x150	; 0x150 <USART_u8SendStringSynch>
    308e:	8d e0       	ldi	r24, 0x0D	; 13
    3090:	0e 94 57 00 	call	0xae	; 0xae <USART_u8SendData>
    3094:	80 91 0b 06 	lds	r24, 0x060B
    3098:	8e 30       	cpi	r24, 0x0E	; 14
    309a:	08 f0       	brcs	.+2      	; 0x309e <main+0x2da>
    309c:	52 cf       	rjmp	.-348    	; 0x2f42 <main+0x17e>
    309e:	80 91 0b 06 	lds	r24, 0x060B
    30a2:	87 30       	cpi	r24, 0x07	; 7
    30a4:	a9 f1       	breq	.+106    	; 0x3110 <main+0x34c>
    30a6:	88 30       	cpi	r24, 0x08	; 8
    30a8:	78 f4       	brcc	.+30     	; 0x30c8 <main+0x304>
    30aa:	83 30       	cpi	r24, 0x03	; 3
    30ac:	29 f1       	breq	.+74     	; 0x30f8 <main+0x334>
    30ae:	84 30       	cpi	r24, 0x04	; 4
    30b0:	30 f4       	brcc	.+12     	; 0x30be <main+0x2fa>
    30b2:	81 30       	cpi	r24, 0x01	; 1
    30b4:	d9 f0       	breq	.+54     	; 0x30ec <main+0x328>
    30b6:	82 30       	cpi	r24, 0x02	; 2
    30b8:	09 f0       	breq	.+2      	; 0x30bc <main+0x2f8>
    30ba:	c3 ce       	rjmp	.-634    	; 0x2e42 <main+0x7e>
    30bc:	1a c0       	rjmp	.+52     	; 0x30f2 <main+0x32e>
    30be:	85 30       	cpi	r24, 0x05	; 5
    30c0:	09 f1       	breq	.+66     	; 0x3104 <main+0x340>
    30c2:	86 30       	cpi	r24, 0x06	; 6
    30c4:	10 f5       	brcc	.+68     	; 0x310a <main+0x346>
    30c6:	1b c0       	rjmp	.+54     	; 0x30fe <main+0x33a>
    30c8:	8a 30       	cpi	r24, 0x0A	; 10
    30ca:	59 f1       	breq	.+86     	; 0x3122 <main+0x35e>
    30cc:	8b 30       	cpi	r24, 0x0B	; 11
    30ce:	30 f4       	brcc	.+12     	; 0x30dc <main+0x318>
    30d0:	88 30       	cpi	r24, 0x08	; 8
    30d2:	09 f1       	breq	.+66     	; 0x3116 <main+0x352>
    30d4:	89 30       	cpi	r24, 0x09	; 9
    30d6:	09 f0       	breq	.+2      	; 0x30da <main+0x316>
    30d8:	b4 ce       	rjmp	.-664    	; 0x2e42 <main+0x7e>
    30da:	20 c0       	rjmp	.+64     	; 0x311c <main+0x358>
    30dc:	8c 30       	cpi	r24, 0x0C	; 12
    30de:	39 f1       	breq	.+78     	; 0x312e <main+0x36a>
    30e0:	8c 30       	cpi	r24, 0x0C	; 12
    30e2:	10 f1       	brcs	.+68     	; 0x3128 <main+0x364>
    30e4:	8d 30       	cpi	r24, 0x0D	; 13
    30e6:	09 f0       	breq	.+2      	; 0x30ea <main+0x326>
    30e8:	ac ce       	rjmp	.-680    	; 0x2e42 <main+0x7e>
    30ea:	24 c0       	rjmp	.+72     	; 0x3134 <main+0x370>
    30ec:	0e 94 90 13 	call	0x2720	; 0x2720 <Home_vStair>
    30f0:	a8 ce       	rjmp	.-688    	; 0x2e42 <main+0x7e>
    30f2:	0e 94 05 13 	call	0x260a	; 0x260a <Home_vReception>
    30f6:	a5 ce       	rjmp	.-694    	; 0x2e42 <main+0x7e>
    30f8:	0e 94 ec 11 	call	0x23d8	; 0x23d8 <Home_vSalon>
    30fc:	a2 ce       	rjmp	.-700    	; 0x2e42 <main+0x7e>
    30fe:	0e 94 67 16 	call	0x2cce	; 0x2cce <Home_vBed_Room>
    3102:	9f ce       	rjmp	.-706    	; 0x2e42 <main+0x7e>
    3104:	0e 94 55 15 	call	0x2aaa	; 0x2aaa <Home_vChildren_Room_1>
    3108:	9c ce       	rjmp	.-712    	; 0x2e42 <main+0x7e>
    310a:	0e 94 da 14 	call	0x29b4	; 0x29b4 <Home_vChildren_Room_2>
    310e:	99 ce       	rjmp	.-718    	; 0x2e42 <main+0x7e>
    3110:	0e 94 76 0e 	call	0x1cec	; 0x1cec <Home_vBath_Room>
    3114:	96 ce       	rjmp	.-724    	; 0x2e42 <main+0x7e>
    3116:	0e 94 d4 10 	call	0x21a8	; 0x21a8 <Home_vKitchen>
    311a:	93 ce       	rjmp	.-730    	; 0x2e42 <main+0x7e>
    311c:	0e 94 11 0e 	call	0x1c22	; 0x1c22 <Home_vCorridor>
    3120:	90 ce       	rjmp	.-736    	; 0x2e42 <main+0x7e>
    3122:	0e 94 8a 0d 	call	0x1b14	; 0x1b14 <Home_vBalacon>
    3126:	8d ce       	rjmp	.-742    	; 0x2e42 <main+0x7e>
    3128:	0e 94 73 0f 	call	0x1ee6	; 0x1ee6 <Auto_Fan_Control>
    312c:	8a ce       	rjmp	.-748    	; 0x2e42 <main+0x7e>
    312e:	0e 94 cd 0e 	call	0x1d9a	; 0x1d9a <Home_vSetting>
    3132:	87 ce       	rjmp	.-754    	; 0x2e42 <main+0x7e>
    3134:	80 91 df 05 	lds	r24, 0x05DF
    3138:	81 60       	ori	r24, 0x01	; 1
    313a:	80 93 df 05 	sts	0x05DF, r24
    313e:	81 ce       	rjmp	.-766    	; 0x2e42 <main+0x7e>

00003140 <__udivmodqi4>:
    3140:	99 1b       	sub	r25, r25
    3142:	79 e0       	ldi	r23, 0x09	; 9
    3144:	04 c0       	rjmp	.+8      	; 0x314e <__udivmodqi4_ep>

00003146 <__udivmodqi4_loop>:
    3146:	99 1f       	adc	r25, r25
    3148:	96 17       	cp	r25, r22
    314a:	08 f0       	brcs	.+2      	; 0x314e <__udivmodqi4_ep>
    314c:	96 1b       	sub	r25, r22

0000314e <__udivmodqi4_ep>:
    314e:	88 1f       	adc	r24, r24
    3150:	7a 95       	dec	r23
    3152:	c9 f7       	brne	.-14     	; 0x3146 <__udivmodqi4_loop>
    3154:	80 95       	com	r24
    3156:	08 95       	ret

00003158 <_exit>:
    3158:	f8 94       	cli

0000315a <__stop_program>:
    315a:	ff cf       	rjmp	.-2      	; 0x315a <__stop_program>
